(lp0
(S'cppflags'
p1
ccopy_reg
_reconstructor
p2
(cino.utils
SpaceList
p3
c__builtin__
list
p4
(lp5
S'-mmcu=atmega32u4'
p6
aS'-DF_CPU=16000000L'
p7
aS'-DARDUINO=103'
p8
aS'-I/usr/share/arduino/hardware/arduino/cores/arduino'
p9
aS'-ffunction-sections'
p10
aS'-fdata-sections'
p11
aS'-g'
p12
aS'-Os'
p13
aS'-w'
p14
aS'-DUSB_VID=0x2341'
p15
aS'-DUSB_PID=0x8036'
p16
aS'-I/usr/share/arduino/hardware/arduino/variants/leonardo'
p17
aS'-I/usr/share/arduino/libraries/ZumoMotors'
p18
aS'-I/usr/share/arduino/libraries/QTRSensors'
p19
aS'-I/usr/share/arduino/libraries/LSM303'
p20
aS'-I/usr/share/arduino/libraries/Pushbutton'
p21
aS'-I/usr/share/arduino/libraries/ZumoReflectanceSensorArray'
p22
aS'-I/usr/share/arduino/libraries/ZumoBuzzer'
p23
aS'-I/usr/share/arduino/libraries/Wire'
p24
aS'-I/usr/share/arduino/libraries/Wire/utility'
p25
aS'-I/usr/share/arduino/hardware/arduino/cores/arduino'
p26
atp27
Rp28
tp29
a(S'cxx'
p30
S'/usr/bin/avr-g++'
p31
tp32
a(S'arduino_libraries_dir'
p33
S'/usr/share/arduino/libraries'
p34
tp35
a(S'avrdude'
p36
S'/usr/share/arduino/hardware/tools/avrdude'
p37
tp38
a(S'ar'
p39
S'/usr/bin/avr-ar'
p40
tp41
a(S'names'
p42
(dp43
S'cpp'
p44
S'%s.cpp'
p45
sS'obj'
p46
S'%s.o'
p47
sS'lib'
p48
S'lib%s.a'
p49
sS'deps'
p50
S'%s.d'
p51
stp52
a(S'ldflags'
p53
g2
(g3
g4
(lp54
g6
aS'-Wl,-Os'
p55
aS'-Wl,--gc-sections'
p56
atp57
Rp58
tp59
a(S'arduino_lib_version'
p60
g2
(cino.environment
Version
p61
c__builtin__
tuple
p62
(I1
I0
I3
tp63
tp64
Rp65
tp66
a(S'objcopy'
p67
S'/usr/bin/avr-objcopy'
p68
tp69
a(S'board_models'
p70
cino.environment
BoardModels
p71
((lp72
(lp73
S'uno'
p74
a(dp75
S'bootloader'
p76
(dp77
S'extended_fuses'
p78
S'0x05'
p79
sS'high_fuses'
p80
S'0xde'
p81
sS'low_fuses'
p82
S'0xff'
p83
sS'lock_bits'
p84
S'0x0F'
p85
sS'file'
p86
S'optiboot_atmega328.hex'
p87
sS'path'
p88
S'optiboot'
p89
sS'unlock_bits'
p90
S'0x3F'
p91
ssS'upload'
p92
(dp93
S'protocol'
p94
S'arduino'
p95
sS'maximum_size'
p96
S'32256'
p97
sS'speed'
p98
S'115200'
p99
ssS'build'
p100
(dp101
S'core'
p102
S'arduino'
p103
sS'mcu'
p104
S'atmega328p'
p105
sS'f_cpu'
p106
S'16000000L'
p107
sS'variant'
p108
S'standard'
p109
ssS'name'
p110
S'Arduino Uno'
p111
saa(lp112
S'atmega328'
p113
a(dp114
S'bootloader'
p115
(dp116
S'extended_fuses'
p117
S'0x05'
p118
sS'high_fuses'
p119
S'0xDA'
p120
sS'low_fuses'
p121
S'0xFF'
p122
sS'lock_bits'
p123
S'0x0F'
p124
sS'file'
p125
S'ATmegaBOOT_168_atmega328.hex'
p126
sS'path'
p127
S'atmega'
p128
sS'unlock_bits'
p129
S'0x3F'
p130
ssS'upload'
p131
(dp132
S'protocol'
p133
S'arduino'
p134
sS'maximum_size'
p135
S'30720'
p136
sS'speed'
p137
S'57600'
p138
ssS'build'
p139
(dp140
S'core'
p141
S'arduino'
p142
sS'mcu'
p143
S'atmega328p'
p144
sS'f_cpu'
p145
S'16000000L'
p146
sS'variant'
p147
S'standard'
p148
ssS'name'
p149
S'Arduino Duemilanove w/ ATmega328'
p150
saa(lp151
S'diecimila'
p152
a(dp153
S'bootloader'
p154
(dp155
S'extended_fuses'
p156
S'0x00'
p157
sS'high_fuses'
p158
S'0xdd'
p159
sS'low_fuses'
p160
S'0xff'
p161
sS'lock_bits'
p162
S'0x0F'
p163
sS'file'
p164
S'ATmegaBOOT_168_diecimila.hex'
p165
sS'path'
p166
S'atmega'
p167
sS'unlock_bits'
p168
S'0x3F'
p169
ssS'upload'
p170
(dp171
S'protocol'
p172
S'arduino'
p173
sS'maximum_size'
p174
S'14336'
p175
sS'speed'
p176
S'19200'
p177
ssS'build'
p178
(dp179
S'core'
p180
S'arduino'
p181
sS'mcu'
p182
S'atmega168'
p183
sS'f_cpu'
p184
S'16000000L'
p185
sS'variant'
p186
S'standard'
p187
ssS'name'
p188
S'Arduino Diecimila or Duemilanove w/ ATmega168'
p189
saa(lp190
S'nano328'
p191
a(dp192
S'bootloader'
p193
(dp194
S'extended_fuses'
p195
S'0x05'
p196
sS'high_fuses'
p197
S'0xDA'
p198
sS'low_fuses'
p199
S'0xFF'
p200
sS'lock_bits'
p201
S'0x0F'
p202
sS'file'
p203
S'ATmegaBOOT_168_atmega328.hex'
p204
sS'path'
p205
S'atmega'
p206
sS'unlock_bits'
p207
S'0x3F'
p208
ssS'upload'
p209
(dp210
S'protocol'
p211
S'arduino'
p212
sS'maximum_size'
p213
S'30720'
p214
sS'speed'
p215
S'57600'
p216
ssS'build'
p217
(dp218
S'core'
p219
S'arduino'
p220
sS'mcu'
p221
S'atmega328p'
p222
sS'f_cpu'
p223
S'16000000L'
p224
sS'variant'
p225
S'eightanaloginputs'
p226
ssS'name'
p227
S'Arduino Nano w/ ATmega328'
p228
saa(lp229
S'nano'
p230
a(dp231
S'bootloader'
p232
(dp233
S'extended_fuses'
p234
S'0x00'
p235
sS'high_fuses'
p236
S'0xdd'
p237
sS'low_fuses'
p238
S'0xff'
p239
sS'lock_bits'
p240
S'0x0F'
p241
sS'file'
p242
S'ATmegaBOOT_168_diecimila.hex'
p243
sS'path'
p244
S'atmega'
p245
sS'unlock_bits'
p246
S'0x3F'
p247
ssS'upload'
p248
(dp249
S'protocol'
p250
S'arduino'
p251
sS'maximum_size'
p252
S'14336'
p253
sS'speed'
p254
S'19200'
p255
ssS'build'
p256
(dp257
S'core'
p258
S'arduino'
p259
sS'mcu'
p260
S'atmega168'
p261
sS'f_cpu'
p262
S'16000000L'
p263
sS'variant'
p264
S'eightanaloginputs'
p265
ssS'name'
p266
S'Arduino Nano w/ ATmega168'
p267
saa(lp268
S'mega2560'
p269
a(dp270
S'bootloader'
p271
(dp272
S'extended_fuses'
p273
S'0xFD'
p274
sS'high_fuses'
p275
S'0xD8'
p276
sS'low_fuses'
p277
S'0xFF'
p278
sS'lock_bits'
p279
S'0x0F'
p280
sS'file'
p281
S'stk500boot_v2_mega2560.hex'
p282
sS'path'
p283
S'stk500v2'
p284
sS'unlock_bits'
p285
S'0x3F'
p286
ssS'upload'
p287
(dp288
S'protocol'
p289
S'wiring'
p290
sS'maximum_size'
p291
S'258048'
p292
sS'speed'
p293
S'115200'
p294
ssS'build'
p295
(dp296
S'core'
p297
S'arduino'
p298
sS'mcu'
p299
S'atmega2560'
p300
sS'f_cpu'
p301
S'16000000L'
p302
sS'variant'
p303
S'mega'
p304
ssS'name'
p305
S'Arduino Mega 2560 or Mega ADK'
p306
saa(lp307
S'mega'
p308
a(dp309
S'bootloader'
p310
(dp311
S'extended_fuses'
p312
S'0xF5'
p313
sS'high_fuses'
p314
S'0xDA'
p315
sS'low_fuses'
p316
S'0xFF'
p317
sS'lock_bits'
p318
S'0x0F'
p319
sS'file'
p320
S'ATmegaBOOT_168_atmega1280.hex'
p321
sS'path'
p322
S'atmega'
p323
sS'unlock_bits'
p324
S'0x3F'
p325
ssS'upload'
p326
(dp327
S'protocol'
p328
S'arduino'
p329
sS'maximum_size'
p330
S'126976'
p331
sS'speed'
p332
S'57600'
p333
ssS'build'
p334
(dp335
S'core'
p336
S'arduino'
p337
sS'mcu'
p338
S'atmega1280'
p339
sS'f_cpu'
p340
S'16000000L'
p341
sS'variant'
p342
S'mega'
p343
ssS'name'
p344
S'Arduino Mega (ATmega1280)'
p345
saa(lp346
S'leonardo'
p347
a(dp348
S'bootloader'
p349
(dp350
S'extended_fuses'
p351
S'0xcb'
p352
sS'high_fuses'
p353
S'0xd8'
p354
sS'low_fuses'
p355
S'0xff'
p356
sS'lock_bits'
p357
S'0x2F'
p358
sS'file'
p359
S'Caterina-Leonardo.hex'
p360
sS'path'
p361
S'caterina'
p362
sS'unlock_bits'
p363
S'0x3F'
p364
ssS'upload'
p365
(dp366
S'protocol'
p367
S'avr109'
p368
sS'maximum_size'
p369
S'28672'
p370
sS'speed'
p371
S'57600'
p372
sS'disable_flushing'
p373
S'true'
p374
ssS'build'
p375
(dp376
S'core'
p377
S'arduino'
p378
sS'f_cpu'
p379
S'16000000L'
p380
sS'vid'
p381
S'0x2341'
p382
sS'pid'
p383
S'0x8036'
p384
sS'variant'
p385
S'leonardo'
p386
sS'mcu'
p387
S'atmega32u4'
p388
ssS'name'
p389
S'Arduino Leonardo'
p390
saa(lp391
S'esplora'
p392
a(dp393
S'bootloader'
p394
(dp395
S'extended_fuses'
p396
S'0xcb'
p397
sS'high_fuses'
p398
S'0xd8'
p399
sS'low_fuses'
p400
S'0xff'
p401
sS'lock_bits'
p402
S'0x2F'
p403
sS'file'
p404
S'Caterina-Esplora.hex'
p405
sS'path'
p406
S'caterina'
p407
sS'unlock_bits'
p408
S'0x3F'
p409
ssS'upload'
p410
(dp411
S'protocol'
p412
S'avr109'
p413
sS'maximum_size'
p414
S'28672'
p415
sS'speed'
p416
S'57600'
p417
sS'disable_flushing'
p418
S'true'
p419
ssS'build'
p420
(dp421
S'core'
p422
S'arduino'
p423
sS'f_cpu'
p424
S'16000000L'
p425
sS'vid'
p426
S'0x2341'
p427
sS'pid'
p428
S'0x803C'
p429
sS'variant'
p430
S'leonardo'
p431
sS'mcu'
p432
S'atmega32u4'
p433
ssS'name'
p434
S'Arduino Esplora'
p435
saa(lp436
S'micro'
p437
a(dp438
S'bootloader'
p439
(dp440
S'extended_fuses'
p441
S'0xcb'
p442
sS'high_fuses'
p443
S'0xd8'
p444
sS'low_fuses'
p445
S'0xff'
p446
sS'lock_bits'
p447
S'0x2F'
p448
sS'file'
p449
S'Caterina-Micro.hex'
p450
sS'path'
p451
S'caterina'
p452
sS'unlock_bits'
p453
S'0x3F'
p454
ssS'upload'
p455
(dp456
S'protocol'
p457
S'avr109'
p458
sS'maximum_size'
p459
S'28672'
p460
sS'speed'
p461
S'57600'
p462
sS'disable_flushing'
p463
S'true'
p464
ssS'build'
p465
(dp466
S'core'
p467
S'arduino'
p468
sS'f_cpu'
p469
S'16000000L'
p470
sS'vid'
p471
S'0x2341'
p472
sS'pid'
p473
S'0x8037'
p474
sS'variant'
p475
S'micro'
p476
sS'mcu'
p477
S'atmega32u4'
p478
ssS'name'
p479
S'Arduino Micro'
p480
saa(lp481
S'mini328'
p482
a(dp483
S'bootloader'
p484
(dp485
S'extended_fuses'
p486
S'0x05'
p487
sS'high_fuses'
p488
S'0xd8'
p489
sS'low_fuses'
p490
S'0xff'
p491
sS'lock_bits'
p492
S'0x0F'
p493
sS'file'
p494
S'optiboot_atmega328-Mini.hex'
p495
sS'path'
p496
S'optiboot'
p497
sS'unlock_bits'
p498
S'0x3F'
p499
ssS'upload'
p500
(dp501
S'protocol'
p502
S'arduino'
p503
sS'maximum_size'
p504
S'28672'
p505
sS'speed'
p506
S'115200'
p507
ssS'build'
p508
(dp509
S'core'
p510
S'arduino'
p511
sS'mcu'
p512
S'atmega328p'
p513
sS'f_cpu'
p514
S'16000000L'
p515
sS'variant'
p516
S'eightanaloginputs'
p517
ssS'name'
p518
S'Arduino Mini w/ ATmega328'
p519
saa(lp520
S'mini'
p521
a(dp522
S'bootloader'
p523
(dp524
S'extended_fuses'
p525
S'0x00'
p526
sS'high_fuses'
p527
S'0xdd'
p528
sS'low_fuses'
p529
S'0xff'
p530
sS'lock_bits'
p531
S'0x0F'
p532
sS'file'
p533
S'ATmegaBOOT_168_ng.hex'
p534
sS'path'
p535
S'atmega'
p536
sS'unlock_bits'
p537
S'0x3F'
p538
ssS'upload'
p539
(dp540
S'protocol'
p541
S'arduino'
p542
sS'maximum_size'
p543
S'14336'
p544
sS'speed'
p545
S'19200'
p546
ssS'build'
p547
(dp548
S'core'
p549
S'arduino'
p550
sS'mcu'
p551
S'atmega168'
p552
sS'f_cpu'
p553
S'16000000L'
p554
sS'variant'
p555
S'eightanaloginputs'
p556
ssS'name'
p557
S'Arduino Mini w/ ATmega168'
p558
saa(lp559
S'ethernet'
p560
a(dp561
S'bootloader'
p562
(dp563
S'extended_fuses'
p564
S'0x05'
p565
sS'high_fuses'
p566
S'0xde'
p567
sS'low_fuses'
p568
S'0xff'
p569
sS'lock_bits'
p570
S'0x0F'
p571
sS'file'
p572
S'optiboot_atmega328.hex'
p573
sS'path'
p574
S'optiboot'
p575
sS'unlock_bits'
p576
S'0x3F'
p577
ssS'upload'
p578
(dp579
S'protocol'
p580
S'arduino'
p581
sS'maximum_size'
p582
S'32256'
p583
sS'speed'
p584
S'115200'
p585
ssS'build'
p586
(dp587
S'variant'
p588
S'standard'
p589
sS'mcu'
p590
S'atmega328p'
p591
sS'f_cpu'
p592
S'16000000L'
p593
sS'core'
p594
S'arduino'
p595
ssS'name'
p596
S'Arduino Ethernet'
p597
saa(lp598
S'fio'
p599
a(dp600
S'bootloader'
p601
(dp602
S'extended_fuses'
p603
S'0x05'
p604
sS'high_fuses'
p605
S'0xDA'
p606
sS'low_fuses'
p607
S'0xFF'
p608
sS'lock_bits'
p609
S'0x0F'
p610
sS'file'
p611
S'ATmegaBOOT_168_atmega328_pro_8MHz.hex'
p612
sS'path'
p613
S'arduino:atmega'
p614
sS'unlock_bits'
p615
S'0x3F'
p616
ssS'upload'
p617
(dp618
S'protocol'
p619
S'arduino'
p620
sS'maximum_size'
p621
S'30720'
p622
sS'speed'
p623
S'57600'
p624
ssS'build'
p625
(dp626
S'core'
p627
S'arduino'
p628
sS'mcu'
p629
S'atmega328p'
p630
sS'f_cpu'
p631
S'8000000L'
p632
sS'variant'
p633
S'eightanaloginputs'
p634
ssS'name'
p635
S'Arduino Fio'
p636
saa(lp637
S'bt328'
p638
a(dp639
S'bootloader'
p640
(dp641
S'extended_fuses'
p642
S'0x05'
p643
sS'high_fuses'
p644
S'0xd8'
p645
sS'low_fuses'
p646
S'0xff'
p647
sS'lock_bits'
p648
S'0x0F'
p649
sS'file'
p650
S'ATmegaBOOT_168_atmega328_bt.hex'
p651
sS'path'
p652
S'bt'
p653
sS'unlock_bits'
p654
S'0x3F'
p655
ssS'upload'
p656
(dp657
S'protocol'
p658
S'arduino'
p659
sS'maximum_size'
p660
S'28672'
p661
sS'speed'
p662
S'19200'
p663
sS'disable_flushing'
p664
S'true'
p665
ssS'build'
p666
(dp667
S'core'
p668
S'arduino'
p669
sS'mcu'
p670
S'atmega328p'
p671
sS'f_cpu'
p672
S'16000000L'
p673
sS'variant'
p674
S'eightanaloginputs'
p675
ssS'name'
p676
S'Arduino BT w/ ATmega328'
p677
saa(lp678
S'bt'
p679
a(dp680
S'bootloader'
p681
(dp682
S'extended_fuses'
p683
S'0x00'
p684
sS'high_fuses'
p685
S'0xdd'
p686
sS'low_fuses'
p687
S'0xff'
p688
sS'lock_bits'
p689
S'0x0F'
p690
sS'file'
p691
S'ATmegaBOOT_168.hex'
p692
sS'path'
p693
S'bt'
p694
sS'unlock_bits'
p695
S'0x3F'
p696
ssS'upload'
p697
(dp698
S'protocol'
p699
S'arduino'
p700
sS'maximum_size'
p701
S'14336'
p702
sS'speed'
p703
S'19200'
p704
sS'disable_flushing'
p705
S'true'
p706
ssS'build'
p707
(dp708
S'core'
p709
S'arduino'
p710
sS'mcu'
p711
S'atmega168'
p712
sS'f_cpu'
p713
S'16000000L'
p714
sS'variant'
p715
S'eightanaloginputs'
p716
ssS'name'
p717
S'Arduino BT w/ ATmega168'
p718
saa(lp719
S'LilyPadUSB'
p720
a(dp721
S'bootloader'
p722
(dp723
S'extended_fuses'
p724
S'0xce'
p725
sS'high_fuses'
p726
S'0xd8'
p727
sS'low_fuses'
p728
S'0xff'
p729
sS'lock_bits'
p730
S'0x2F'
p731
sS'file'
p732
S'Caterina-LilyPadUSB.hex'
p733
sS'path'
p734
S'caterina-LilyPadUSB'
p735
sS'unlock_bits'
p736
S'0x3F'
p737
ssS'upload'
p738
(dp739
S'protocol'
p740
S'avr109'
p741
sS'maximum_size'
p742
S'28672'
p743
sS'speed'
p744
S'57600'
p745
sS'disable_flushing'
p746
S'true'
p747
ssS'build'
p748
(dp749
S'core'
p750
S'arduino'
p751
sS'f_cpu'
p752
S'8000000L'
p753
sS'vid'
p754
S'0x1B4F'
p755
sS'pid'
p756
S'0x9208'
p757
sS'variant'
p758
S'leonardo'
p759
sS'mcu'
p760
S'atmega32u4'
p761
ssS'name'
p762
S'LilyPad Arduino USB'
p763
saa(lp764
S'lilypad328'
p765
a(dp766
S'bootloader'
p767
(dp768
S'extended_fuses'
p769
S'0x05'
p770
sS'high_fuses'
p771
S'0xDA'
p772
sS'low_fuses'
p773
S'0xFF'
p774
sS'lock_bits'
p775
S'0x0F'
p776
sS'file'
p777
S'ATmegaBOOT_168_atmega328_pro_8MHz.hex'
p778
sS'path'
p779
S'atmega'
p780
sS'unlock_bits'
p781
S'0x3F'
p782
ssS'upload'
p783
(dp784
S'protocol'
p785
S'arduino'
p786
sS'maximum_size'
p787
S'30720'
p788
sS'speed'
p789
S'57600'
p790
ssS'build'
p791
(dp792
S'core'
p793
S'arduino'
p794
sS'mcu'
p795
S'atmega328p'
p796
sS'f_cpu'
p797
S'8000000L'
p798
sS'variant'
p799
S'standard'
p800
ssS'name'
p801
S'LilyPad Arduino w/ ATmega328'
p802
saa(lp803
S'lilypad'
p804
a(dp805
S'bootloader'
p806
(dp807
S'extended_fuses'
p808
S'0x00'
p809
sS'high_fuses'
p810
S'0xdd'
p811
sS'low_fuses'
p812
S'0xe2'
p813
sS'lock_bits'
p814
S'0x0F'
p815
sS'file'
p816
S'LilyPadBOOT_168.hex'
p817
sS'path'
p818
S'lilypad'
p819
sS'unlock_bits'
p820
S'0x3F'
p821
ssS'upload'
p822
(dp823
S'protocol'
p824
S'arduino'
p825
sS'maximum_size'
p826
S'14336'
p827
sS'speed'
p828
S'19200'
p829
ssS'build'
p830
(dp831
S'core'
p832
S'arduino'
p833
sS'mcu'
p834
S'atmega168'
p835
sS'f_cpu'
p836
S'8000000L'
p837
sS'variant'
p838
S'standard'
p839
ssS'name'
p840
S'LilyPad Arduino w/ ATmega168'
p841
saa(lp842
S'pro5v328'
p843
a(dp844
S'bootloader'
p845
(dp846
S'extended_fuses'
p847
S'0x05'
p848
sS'high_fuses'
p849
S'0xDA'
p850
sS'low_fuses'
p851
S'0xFF'
p852
sS'lock_bits'
p853
S'0x0F'
p854
sS'file'
p855
S'ATmegaBOOT_168_atmega328.hex'
p856
sS'path'
p857
S'atmega'
p858
sS'unlock_bits'
p859
S'0x3F'
p860
ssS'upload'
p861
(dp862
S'protocol'
p863
S'arduino'
p864
sS'maximum_size'
p865
S'30720'
p866
sS'speed'
p867
S'57600'
p868
ssS'build'
p869
(dp870
S'core'
p871
S'arduino'
p872
sS'mcu'
p873
S'atmega328p'
p874
sS'f_cpu'
p875
S'16000000L'
p876
sS'variant'
p877
S'standard'
p878
ssS'name'
p879
S'Arduino Pro or Pro Mini (5V, 16 MHz) w/ ATmega328'
p880
saa(lp881
S'pro5v'
p882
a(dp883
S'bootloader'
p884
(dp885
S'extended_fuses'
p886
S'0x00'
p887
sS'high_fuses'
p888
S'0xdd'
p889
sS'low_fuses'
p890
S'0xff'
p891
sS'lock_bits'
p892
S'0x0F'
p893
sS'file'
p894
S'ATmegaBOOT_168_diecimila.hex'
p895
sS'path'
p896
S'atmega'
p897
sS'unlock_bits'
p898
S'0x3F'
p899
ssS'upload'
p900
(dp901
S'protocol'
p902
S'arduino'
p903
sS'maximum_size'
p904
S'14336'
p905
sS'speed'
p906
S'19200'
p907
ssS'build'
p908
(dp909
S'core'
p910
S'arduino'
p911
sS'mcu'
p912
S'atmega168'
p913
sS'f_cpu'
p914
S'16000000L'
p915
sS'variant'
p916
S'standard'
p917
ssS'name'
p918
S'Arduino Pro or Pro Mini (5V, 16 MHz) w/ ATmega168'
p919
saa(lp920
S'pro328'
p921
a(dp922
S'bootloader'
p923
(dp924
S'extended_fuses'
p925
S'0x05'
p926
sS'high_fuses'
p927
S'0xDA'
p928
sS'low_fuses'
p929
S'0xFF'
p930
sS'lock_bits'
p931
S'0x0F'
p932
sS'file'
p933
S'ATmegaBOOT_168_atmega328_pro_8MHz.hex'
p934
sS'path'
p935
S'atmega'
p936
sS'unlock_bits'
p937
S'0x3F'
p938
ssS'upload'
p939
(dp940
S'protocol'
p941
S'arduino'
p942
sS'maximum_size'
p943
S'30720'
p944
sS'speed'
p945
S'57600'
p946
ssS'build'
p947
(dp948
S'core'
p949
S'arduino'
p950
sS'mcu'
p951
S'atmega328p'
p952
sS'f_cpu'
p953
S'8000000L'
p954
sS'variant'
p955
S'standard'
p956
ssS'name'
p957
S'Arduino Pro or Pro Mini (3.3V, 8 MHz) w/ ATmega328'
p958
saa(lp959
S'pro'
p960
a(dp961
S'bootloader'
p962
(dp963
S'extended_fuses'
p964
S'0x00'
p965
sS'high_fuses'
p966
S'0xdd'
p967
sS'low_fuses'
p968
S'0xc6'
p969
sS'lock_bits'
p970
S'0x0F'
p971
sS'file'
p972
S'ATmegaBOOT_168_pro_8MHz.hex'
p973
sS'path'
p974
S'atmega'
p975
sS'unlock_bits'
p976
S'0x3F'
p977
ssS'upload'
p978
(dp979
S'protocol'
p980
S'arduino'
p981
sS'maximum_size'
p982
S'14336'
p983
sS'speed'
p984
S'19200'
p985
ssS'build'
p986
(dp987
S'core'
p988
S'arduino'
p989
sS'mcu'
p990
S'atmega168'
p991
sS'f_cpu'
p992
S'8000000L'
p993
sS'variant'
p994
S'standard'
p995
ssS'name'
p996
S'Arduino Pro or Pro Mini (3.3V, 8 MHz) w/ ATmega168'
p997
saa(lp998
S'atmega168'
p999
a(dp1000
S'bootloader'
p1001
(dp1002
S'extended_fuses'
p1003
S'0x00'
p1004
sS'high_fuses'
p1005
S'0xdd'
p1006
sS'low_fuses'
p1007
S'0xff'
p1008
sS'lock_bits'
p1009
S'0x0F'
p1010
sS'file'
p1011
S'ATmegaBOOT_168_ng.hex'
p1012
sS'path'
p1013
S'atmega'
p1014
sS'unlock_bits'
p1015
S'0x3F'
p1016
ssS'upload'
p1017
(dp1018
S'protocol'
p1019
S'arduino'
p1020
sS'maximum_size'
p1021
S'14336'
p1022
sS'speed'
p1023
S'19200'
p1024
ssS'build'
p1025
(dp1026
S'core'
p1027
S'arduino'
p1028
sS'mcu'
p1029
S'atmega168'
p1030
sS'f_cpu'
p1031
S'16000000L'
p1032
sS'variant'
p1033
S'standard'
p1034
ssS'name'
p1035
S'Arduino NG or older w/ ATmega168'
p1036
saa(lp1037
S'atmega8'
p1038
a(dp1039
S'bootloader'
p1040
(dp1041
S'high_fuses'
p1042
S'0xca'
p1043
sS'low_fuses'
p1044
S'0xdf'
p1045
sS'lock_bits'
p1046
S'0x0F'
p1047
sS'file'
p1048
S'ATmegaBOOT-prod-firmware-2009-11-07.hex'
p1049
sS'path'
p1050
S'atmega8'
p1051
sS'unlock_bits'
p1052
S'0x3F'
p1053
ssS'upload'
p1054
(dp1055
S'protocol'
p1056
S'arduino'
p1057
sS'maximum_size'
p1058
S'7168'
p1059
sS'speed'
p1060
S'19200'
p1061
ssS'build'
p1062
(dp1063
S'core'
p1064
S'arduino'
p1065
sS'mcu'
p1066
S'atmega8'
p1067
sS'f_cpu'
p1068
S'16000000L'
p1069
sS'variant'
p1070
S'standard'
p1071
ssS'name'
p1072
S'Arduino NG or older w/ ATmega8'
p1073
saa(lp1074
S'attiny45'
p1075
a(dp1076
S'bootloader'
p1077
(dp1078
S'low_fuses'
p1079
S'0x62'
p1080
sS'extended_fuses'
p1081
S'0xff'
p1082
sS'high_fuses'
p1083
S'0xdf'
p1084
ssS'upload'
p1085
(dp1086
S'maximum_size'
p1087
S'4096'
p1088
sS'protocol'
p1089
S'arduino'
p1090
ssS'build'
p1091
(dp1092
S'core'
p1093
S'arduino:arduino'
p1094
sS'mcu'
p1095
S'attiny45'
p1096
sS'f_cpu'
p1097
S'1000000L'
p1098
sS'variant'
p1099
S'tiny8'
p1100
ssS'name'
p1101
S'ATtiny45 (internal 1 MHz clock)'
p1102
saa(lp1103
S'attiny45-8'
p1104
a(dp1105
S'bootloader'
p1106
(dp1107
S'low_fuses'
p1108
S'0xe2'
p1109
sS'extended_fuses'
p1110
S'0xff'
p1111
sS'high_fuses'
p1112
S'0xdf'
p1113
ssS'upload'
p1114
(dp1115
S'maximum_size'
p1116
S'4096'
p1117
sS'protocol'
p1118
S'arduino'
p1119
ssS'build'
p1120
(dp1121
S'core'
p1122
S'arduino:arduino'
p1123
sS'mcu'
p1124
S'attiny45'
p1125
sS'f_cpu'
p1126
S'8000000L'
p1127
sS'variant'
p1128
S'tiny8'
p1129
ssS'name'
p1130
S'ATtiny45 (internal 8 MHz clock)'
p1131
saa(lp1132
S'attiny45-20'
p1133
a(dp1134
S'bootloader'
p1135
(dp1136
S'low_fuses'
p1137
S'0xfe'
p1138
sS'extended_fuses'
p1139
S'0xff'
p1140
sS'high_fuses'
p1141
S'0xdf'
p1142
ssS'upload'
p1143
(dp1144
S'maximum_size'
p1145
S'4096'
p1146
sS'protocol'
p1147
S'arduino'
p1148
ssS'build'
p1149
(dp1150
S'core'
p1151
S'arduino:arduino'
p1152
sS'mcu'
p1153
S'attiny45'
p1154
sS'f_cpu'
p1155
S'20000000L'
p1156
sS'variant'
p1157
S'tiny8'
p1158
ssS'name'
p1159
S'ATtiny45 (external 20 MHz clock)'
p1160
saa(lp1161
S'attiny85'
p1162
a(dp1163
S'bootloader'
p1164
(dp1165
S'low_fuses'
p1166
S'0x62'
p1167
sS'extended_fuses'
p1168
S'0xff'
p1169
sS'high_fuses'
p1170
S'0xdf'
p1171
ssS'upload'
p1172
(dp1173
S'maximum_size'
p1174
S'8192'
p1175
sS'protocol'
p1176
S'arduino'
p1177
ssS'build'
p1178
(dp1179
S'core'
p1180
S'arduino:arduino'
p1181
sS'mcu'
p1182
S'attiny85'
p1183
sS'f_cpu'
p1184
S'1000000L'
p1185
sS'variant'
p1186
S'tiny8'
p1187
ssS'name'
p1188
S'ATtiny85 (internal 1 MHz clock)'
p1189
saa(lp1190
S'attiny85-8'
p1191
a(dp1192
S'bootloader'
p1193
(dp1194
S'low_fuses'
p1195
S'0xe2'
p1196
sS'extended_fuses'
p1197
S'0xff'
p1198
sS'high_fuses'
p1199
S'0xdf'
p1200
ssS'upload'
p1201
(dp1202
S'maximum_size'
p1203
S'8192'
p1204
sS'protocol'
p1205
S'arduino'
p1206
ssS'build'
p1207
(dp1208
S'core'
p1209
S'arduino:arduino'
p1210
sS'mcu'
p1211
S'attiny85'
p1212
sS'f_cpu'
p1213
S'8000000L'
p1214
sS'variant'
p1215
S'tiny8'
p1216
ssS'name'
p1217
S'ATtiny85 (internal 8 MHz clock)'
p1218
saa(lp1219
S'attiny85-20'
p1220
a(dp1221
S'bootloader'
p1222
(dp1223
S'low_fuses'
p1224
S'0xfe'
p1225
sS'extended_fuses'
p1226
S'0xff'
p1227
sS'high_fuses'
p1228
S'0xdf'
p1229
ssS'upload'
p1230
(dp1231
S'maximum_size'
p1232
S'8192'
p1233
sS'protocol'
p1234
S'arduino'
p1235
ssS'build'
p1236
(dp1237
S'core'
p1238
S'arduino:arduino'
p1239
sS'mcu'
p1240
S'attiny85'
p1241
sS'f_cpu'
p1242
S'20000000L'
p1243
sS'variant'
p1244
S'tiny8'
p1245
ssS'name'
p1246
S'ATtiny85 (external 20 MHz clock)'
p1247
saa(lp1248
S'attiny44'
p1249
a(dp1250
S'bootloader'
p1251
(dp1252
S'low_fuses'
p1253
S'0x62'
p1254
sS'extended_fuses'
p1255
S'0xff'
p1256
sS'high_fuses'
p1257
S'0xdf'
p1258
ssS'upload'
p1259
(dp1260
S'maximum_size'
p1261
S'4096'
p1262
sS'protocol'
p1263
S'arduino'
p1264
ssS'build'
p1265
(dp1266
S'core'
p1267
S'arduino:arduino'
p1268
sS'mcu'
p1269
S'attiny44'
p1270
sS'f_cpu'
p1271
S'1000000L'
p1272
sS'variant'
p1273
S'tiny14'
p1274
ssS'name'
p1275
S'ATtiny44 (internal 1 MHz clock)'
p1276
saa(lp1277
S'attiny44-8'
p1278
a(dp1279
S'bootloader'
p1280
(dp1281
S'low_fuses'
p1282
S'0xe2'
p1283
sS'extended_fuses'
p1284
S'0xff'
p1285
sS'high_fuses'
p1286
S'0xdf'
p1287
ssS'upload'
p1288
(dp1289
S'maximum_size'
p1290
S'4096'
p1291
sS'protocol'
p1292
S'arduino'
p1293
ssS'build'
p1294
(dp1295
S'core'
p1296
S'arduino:arduino'
p1297
sS'mcu'
p1298
S'attiny44'
p1299
sS'f_cpu'
p1300
S'8000000L'
p1301
sS'variant'
p1302
S'tiny14'
p1303
ssS'name'
p1304
S'ATtiny44 (internal 8 MHz clock)'
p1305
saa(lp1306
S'attiny44-20'
p1307
a(dp1308
S'bootloader'
p1309
(dp1310
S'low_fuses'
p1311
S'0xfe'
p1312
sS'extended_fuses'
p1313
S'0xff'
p1314
sS'high_fuses'
p1315
S'0xdf'
p1316
ssS'upload'
p1317
(dp1318
S'maximum_size'
p1319
S'4096'
p1320
sS'protocol'
p1321
S'arduino'
p1322
ssS'build'
p1323
(dp1324
S'core'
p1325
S'arduino:arduino'
p1326
sS'mcu'
p1327
S'attiny44'
p1328
sS'f_cpu'
p1329
S'20000000L'
p1330
sS'variant'
p1331
S'tiny14'
p1332
ssS'name'
p1333
S'ATtiny44 (external 20 MHz clock)'
p1334
saa(lp1335
S'attiny84'
p1336
a(dp1337
S'bootloader'
p1338
(dp1339
S'low_fuses'
p1340
S'0x62'
p1341
sS'extended_fuses'
p1342
S'0xff'
p1343
sS'high_fuses'
p1344
S'0xdf'
p1345
ssS'upload'
p1346
(dp1347
S'maximum_size'
p1348
S'8192'
p1349
sS'protocol'
p1350
S'arduino'
p1351
ssS'build'
p1352
(dp1353
S'core'
p1354
S'arduino:arduino'
p1355
sS'mcu'
p1356
S'attiny84'
p1357
sS'f_cpu'
p1358
S'1000000L'
p1359
sS'variant'
p1360
S'tiny14'
p1361
ssS'name'
p1362
S'ATtiny84 (internal 1 MHz clock)'
p1363
saa(lp1364
S'attiny84-8'
p1365
a(dp1366
S'bootloader'
p1367
(dp1368
S'low_fuses'
p1369
S'0xe2'
p1370
sS'extended_fuses'
p1371
S'0xff'
p1372
sS'high_fuses'
p1373
S'0xdf'
p1374
ssS'upload'
p1375
(dp1376
S'maximum_size'
p1377
S'8192'
p1378
sS'protocol'
p1379
S'arduino'
p1380
ssS'build'
p1381
(dp1382
S'core'
p1383
S'arduino:arduino'
p1384
sS'mcu'
p1385
S'attiny84'
p1386
sS'f_cpu'
p1387
S'8000000L'
p1388
sS'variant'
p1389
S'tiny14'
p1390
ssS'name'
p1391
S'ATtiny84 (internal 8 MHz clock)'
p1392
saa(lp1393
S'attiny84-20'
p1394
a(dp1395
S'bootloader'
p1396
(dp1397
S'low_fuses'
p1398
S'0xfe'
p1399
sS'extended_fuses'
p1400
S'0xff'
p1401
sS'high_fuses'
p1402
S'0xdf'
p1403
ssS'upload'
p1404
(dp1405
S'maximum_size'
p1406
S'8192'
p1407
sS'protocol'
p1408
S'arduino'
p1409
ssS'build'
p1410
(dp1411
S'core'
p1412
S'arduino:arduino'
p1413
sS'mcu'
p1414
S'attiny84'
p1415
sS'f_cpu'
p1416
S'20000000L'
p1417
sS'variant'
p1418
S'tiny14'
p1419
ssS'name'
p1420
S'ATtiny84 (external 20 MHz clock)'
p1421
saatp1422
Rp1423
(dp1424
S'default'
p1425
S'uno'
p1426
sbtp1427
a(S'used_libs'
p1428
(lp1429
S'/usr/share/arduino/libraries/ZumoMotors'
p1430
aS'/usr/share/arduino/libraries/QTRSensors'
p1431
aS'/usr/share/arduino/libraries/LSM303'
p1432
aS'/usr/share/arduino/libraries/Pushbutton'
p1433
aS'/usr/share/arduino/libraries/ZumoReflectanceSensorArray'
p1434
aS'/usr/share/arduino/libraries/ZumoBuzzer'
p1435
aS'/usr/share/arduino/libraries/Wire'
p1436
aS'/usr/share/arduino/hardware/arduino/cores/arduino'
p1437
atp1438
a(S'make'
p1439
S'/usr/bin/make'
p1440
tp1441
a(S'build_dir'
p1442
S'.build/leonardo'
p1443
tp1444
a(S'cc'
p1445
S'/usr/bin/avr-gcc'
p1446
tp1447
a(S'cflags'
p1448
g2
(g3
g4
(lp1449
tp1450
Rp1451
tp1452
a(S'cxxflags'
p1453
g2
(g3
g4
(lp1454
S'-fno-exceptions'
p1455
atp1456
Rp1457
tp1458
a(S'arduino_variants_dir'
p1459
S'/usr/share/arduino/hardware/arduino/variants'
p1460
tp1461
a(S'stty'
p1462
S'/bin/stty'
p1463
tp1464
a(S'version.txt'
p1465
S'/usr/share/arduino/lib/version.txt'
p1466
tp1467
a(S'arduino_core_dir'
p1468
g1437
tp1469
a(S'boards.txt'
p1470
S'/usr/share/arduino/hardware/arduino/boards.txt'
p1471
tp1472
a(S'avrdude.conf'
p1473
S'/usr/share/arduino/hardware/tools/avrdude.conf'
p1474
tp1475
a(g50
g2
(g3
g4
(lp1476
S'.build/leonardo/src/dependencies.d'
p1477
aS'.build/leonardo/arduino/dependencies.d'
p1478
aS'.build/leonardo/ZumoMotors/dependencies.d'
p1479
aS'.build/leonardo/QTRSensors/dependencies.d'
p1480
aS'.build/leonardo/LSM303/dependencies.d'
p1481
aS'.build/leonardo/Pushbutton/dependencies.d'
p1482
aS'.build/leonardo/Wire/dependencies.d'
p1483
aS'.build/leonardo/ZumoReflectanceSensorArray/dependencies.d'
p1484
aS'.build/leonardo/ZumoBuzzer/dependencies.d'
p1485
atp1486
Rp1487
tp1488
a.