(lp0
(S'cppflags'
p1
ccopy_reg
_reconstructor
p2
(cino.utils
SpaceList
p3
c__builtin__
list
p4
(lp5
S'-mmcu=atmega32u4'
p6
aS'-DF_CPU=16000000L'
p7
aS'-DARDUINO=103'
p8
aS'-I/usr/share/arduino/hardware/arduino/cores/arduino'
p9
aS'-ffunction-sections'
p10
aS'-fdata-sections'
p11
aS'-g'
p12
aS'-Os'
p13
aS'-w'
p14
aS'-DUSB_VID=0x2341'
p15
aS'-DUSB_PID=0x8036'
p16
aS'-I/usr/share/arduino/hardware/arduino/variants/leonardo'
p17
aS'-I/usr/share/arduino/libraries/LSM303'
p18
aS'-I/usr/share/arduino/libraries/Pushbutton'
p19
aS'-I/usr/share/arduino/libraries/ZumoMotors'
p20
aS'-I/usr/share/arduino/libraries/Wire'
p21
aS'-I/usr/share/arduino/libraries/Wire/utility'
p22
aS'-I/usr/share/arduino/hardware/arduino/cores/arduino'
p23
atp24
Rp25
tp26
a(S'version.txt'
p27
S'/usr/share/arduino/lib/version.txt'
p28
tp29
a(S'used_libs'
p30
(lp31
S'/usr/share/arduino/libraries/LSM303'
p32
aS'/usr/share/arduino/libraries/Pushbutton'
p33
aS'/usr/share/arduino/libraries/ZumoMotors'
p34
aS'/usr/share/arduino/libraries/Wire'
p35
aS'/usr/share/arduino/hardware/arduino/cores/arduino'
p36
atp37
a(S'cc'
p38
S'/usr/bin/avr-gcc'
p39
tp40
a(S'make'
p41
S'/usr/bin/make'
p42
tp43
a(S'build_dir'
p44
S'.build/leonardo'
p45
tp46
a(S'arduino_core_dir'
p47
g36
tp48
a(S'boards.txt'
p49
S'/usr/share/arduino/hardware/arduino/boards.txt'
p50
tp51
a(S'cxxflags'
p52
g2
(g3
g4
(lp53
S'-fno-exceptions'
p54
atp55
Rp56
tp57
a(S'arduino_variants_dir'
p58
S'/usr/share/arduino/hardware/arduino/variants'
p59
tp60
a(S'deps'
p61
g2
(g3
g4
(lp62
S'.build/leonardo/src/dependencies.d'
p63
aS'.build/leonardo/arduino/dependencies.d'
p64
aS'.build/leonardo/LSM303/dependencies.d'
p65
aS'.build/leonardo/Wire/dependencies.d'
p66
aS'.build/leonardo/Pushbutton/dependencies.d'
p67
aS'.build/leonardo/ZumoMotors/dependencies.d'
p68
atp69
Rp70
tp71
a(S'ar'
p72
S'/usr/bin/avr-ar'
p73
tp74
a(S'names'
p75
(dp76
S'cpp'
p77
S'%s.cpp'
p78
sS'obj'
p79
S'%s.o'
p80
sg61
S'%s.d'
p81
sS'lib'
p82
S'lib%s.a'
p83
stp84
a(S'cflags'
p85
g2
(g3
g4
(lp86
tp87
Rp88
tp89
a(S'ldflags'
p90
g2
(g3
g4
(lp91
g6
aS'-Wl,-Os'
p92
aS'-Wl,--gc-sections'
p93
atp94
Rp95
tp96
a(S'arduino_libraries_dir'
p97
S'/usr/share/arduino/libraries'
p98
tp99
a(S'arduino_lib_version'
p100
g2
(cino.environment
Version
p101
c__builtin__
tuple
p102
(I1
I0
I3
tp103
tp104
Rp105
tp106
a(S'objcopy'
p107
S'/usr/bin/avr-objcopy'
p108
tp109
a(S'board_models'
p110
cino.environment
BoardModels
p111
((lp112
(lp113
S'uno'
p114
a(dp115
S'build'
p116
(dp117
S'core'
p118
S'arduino'
p119
sS'mcu'
p120
S'atmega328p'
p121
sS'f_cpu'
p122
S'16000000L'
p123
sS'variant'
p124
S'standard'
p125
ssS'bootloader'
p126
(dp127
S'extended_fuses'
p128
S'0x05'
p129
sS'high_fuses'
p130
S'0xde'
p131
sS'low_fuses'
p132
S'0xff'
p133
sS'lock_bits'
p134
S'0x0F'
p135
sS'file'
p136
S'optiboot_atmega328.hex'
p137
sS'path'
p138
S'optiboot'
p139
sS'unlock_bits'
p140
S'0x3F'
p141
ssS'name'
p142
S'Arduino Uno'
p143
sS'upload'
p144
(dp145
S'speed'
p146
S'115200'
p147
sS'maximum_size'
p148
S'32256'
p149
sS'protocol'
p150
S'arduino'
p151
ssaa(lp152
S'atmega328'
p153
a(dp154
S'build'
p155
(dp156
S'core'
p157
S'arduino'
p158
sS'mcu'
p159
S'atmega328p'
p160
sS'f_cpu'
p161
S'16000000L'
p162
sS'variant'
p163
S'standard'
p164
ssS'bootloader'
p165
(dp166
S'extended_fuses'
p167
S'0x05'
p168
sS'high_fuses'
p169
S'0xDA'
p170
sS'low_fuses'
p171
S'0xFF'
p172
sS'lock_bits'
p173
S'0x0F'
p174
sS'file'
p175
S'ATmegaBOOT_168_atmega328.hex'
p176
sS'path'
p177
S'atmega'
p178
sS'unlock_bits'
p179
S'0x3F'
p180
ssS'name'
p181
S'Arduino Duemilanove w/ ATmega328'
p182
sS'upload'
p183
(dp184
S'speed'
p185
S'57600'
p186
sS'maximum_size'
p187
S'30720'
p188
sS'protocol'
p189
S'arduino'
p190
ssaa(lp191
S'diecimila'
p192
a(dp193
S'build'
p194
(dp195
S'core'
p196
S'arduino'
p197
sS'mcu'
p198
S'atmega168'
p199
sS'f_cpu'
p200
S'16000000L'
p201
sS'variant'
p202
S'standard'
p203
ssS'bootloader'
p204
(dp205
S'extended_fuses'
p206
S'0x00'
p207
sS'high_fuses'
p208
S'0xdd'
p209
sS'low_fuses'
p210
S'0xff'
p211
sS'lock_bits'
p212
S'0x0F'
p213
sS'file'
p214
S'ATmegaBOOT_168_diecimila.hex'
p215
sS'path'
p216
S'atmega'
p217
sS'unlock_bits'
p218
S'0x3F'
p219
ssS'name'
p220
S'Arduino Diecimila or Duemilanove w/ ATmega168'
p221
sS'upload'
p222
(dp223
S'speed'
p224
S'19200'
p225
sS'maximum_size'
p226
S'14336'
p227
sS'protocol'
p228
S'arduino'
p229
ssaa(lp230
S'nano328'
p231
a(dp232
S'build'
p233
(dp234
S'core'
p235
S'arduino'
p236
sS'mcu'
p237
S'atmega328p'
p238
sS'f_cpu'
p239
S'16000000L'
p240
sS'variant'
p241
S'eightanaloginputs'
p242
ssS'bootloader'
p243
(dp244
S'extended_fuses'
p245
S'0x05'
p246
sS'high_fuses'
p247
S'0xDA'
p248
sS'low_fuses'
p249
S'0xFF'
p250
sS'lock_bits'
p251
S'0x0F'
p252
sS'file'
p253
S'ATmegaBOOT_168_atmega328.hex'
p254
sS'path'
p255
S'atmega'
p256
sS'unlock_bits'
p257
S'0x3F'
p258
ssS'name'
p259
S'Arduino Nano w/ ATmega328'
p260
sS'upload'
p261
(dp262
S'speed'
p263
S'57600'
p264
sS'maximum_size'
p265
S'30720'
p266
sS'protocol'
p267
S'arduino'
p268
ssaa(lp269
S'nano'
p270
a(dp271
S'build'
p272
(dp273
S'core'
p274
S'arduino'
p275
sS'mcu'
p276
S'atmega168'
p277
sS'f_cpu'
p278
S'16000000L'
p279
sS'variant'
p280
S'eightanaloginputs'
p281
ssS'bootloader'
p282
(dp283
S'extended_fuses'
p284
S'0x00'
p285
sS'high_fuses'
p286
S'0xdd'
p287
sS'low_fuses'
p288
S'0xff'
p289
sS'lock_bits'
p290
S'0x0F'
p291
sS'file'
p292
S'ATmegaBOOT_168_diecimila.hex'
p293
sS'path'
p294
S'atmega'
p295
sS'unlock_bits'
p296
S'0x3F'
p297
ssS'name'
p298
S'Arduino Nano w/ ATmega168'
p299
sS'upload'
p300
(dp301
S'speed'
p302
S'19200'
p303
sS'maximum_size'
p304
S'14336'
p305
sS'protocol'
p306
S'arduino'
p307
ssaa(lp308
S'mega2560'
p309
a(dp310
S'build'
p311
(dp312
S'core'
p313
S'arduino'
p314
sS'mcu'
p315
S'atmega2560'
p316
sS'f_cpu'
p317
S'16000000L'
p318
sS'variant'
p319
S'mega'
p320
ssS'bootloader'
p321
(dp322
S'extended_fuses'
p323
S'0xFD'
p324
sS'high_fuses'
p325
S'0xD8'
p326
sS'low_fuses'
p327
S'0xFF'
p328
sS'lock_bits'
p329
S'0x0F'
p330
sS'file'
p331
S'stk500boot_v2_mega2560.hex'
p332
sS'path'
p333
S'stk500v2'
p334
sS'unlock_bits'
p335
S'0x3F'
p336
ssS'name'
p337
S'Arduino Mega 2560 or Mega ADK'
p338
sS'upload'
p339
(dp340
S'speed'
p341
S'115200'
p342
sS'maximum_size'
p343
S'258048'
p344
sS'protocol'
p345
S'wiring'
p346
ssaa(lp347
S'mega'
p348
a(dp349
S'build'
p350
(dp351
S'core'
p352
S'arduino'
p353
sS'mcu'
p354
S'atmega1280'
p355
sS'f_cpu'
p356
S'16000000L'
p357
sS'variant'
p358
S'mega'
p359
ssS'bootloader'
p360
(dp361
S'extended_fuses'
p362
S'0xF5'
p363
sS'high_fuses'
p364
S'0xDA'
p365
sS'low_fuses'
p366
S'0xFF'
p367
sS'lock_bits'
p368
S'0x0F'
p369
sS'file'
p370
S'ATmegaBOOT_168_atmega1280.hex'
p371
sS'path'
p372
S'atmega'
p373
sS'unlock_bits'
p374
S'0x3F'
p375
ssS'name'
p376
S'Arduino Mega (ATmega1280)'
p377
sS'upload'
p378
(dp379
S'speed'
p380
S'57600'
p381
sS'maximum_size'
p382
S'126976'
p383
sS'protocol'
p384
S'arduino'
p385
ssaa(lp386
S'leonardo'
p387
a(dp388
S'build'
p389
(dp390
S'core'
p391
S'arduino'
p392
sS'f_cpu'
p393
S'16000000L'
p394
sS'vid'
p395
S'0x2341'
p396
sS'pid'
p397
S'0x8036'
p398
sS'variant'
p399
S'leonardo'
p400
sS'mcu'
p401
S'atmega32u4'
p402
ssS'bootloader'
p403
(dp404
S'extended_fuses'
p405
S'0xcb'
p406
sS'high_fuses'
p407
S'0xd8'
p408
sS'low_fuses'
p409
S'0xff'
p410
sS'lock_bits'
p411
S'0x2F'
p412
sS'file'
p413
S'Caterina-Leonardo.hex'
p414
sS'path'
p415
S'caterina'
p416
sS'unlock_bits'
p417
S'0x3F'
p418
ssS'name'
p419
S'Arduino Leonardo'
p420
sS'upload'
p421
(dp422
S'speed'
p423
S'57600'
p424
sS'maximum_size'
p425
S'28672'
p426
sS'protocol'
p427
S'avr109'
p428
sS'disable_flushing'
p429
S'true'
p430
ssaa(lp431
S'esplora'
p432
a(dp433
S'build'
p434
(dp435
S'core'
p436
S'arduino'
p437
sS'f_cpu'
p438
S'16000000L'
p439
sS'vid'
p440
S'0x2341'
p441
sS'pid'
p442
S'0x803C'
p443
sS'variant'
p444
S'leonardo'
p445
sS'mcu'
p446
S'atmega32u4'
p447
ssS'bootloader'
p448
(dp449
S'extended_fuses'
p450
S'0xcb'
p451
sS'high_fuses'
p452
S'0xd8'
p453
sS'low_fuses'
p454
S'0xff'
p455
sS'lock_bits'
p456
S'0x2F'
p457
sS'file'
p458
S'Caterina-Esplora.hex'
p459
sS'path'
p460
S'caterina'
p461
sS'unlock_bits'
p462
S'0x3F'
p463
ssS'name'
p464
S'Arduino Esplora'
p465
sS'upload'
p466
(dp467
S'speed'
p468
S'57600'
p469
sS'maximum_size'
p470
S'28672'
p471
sS'protocol'
p472
S'avr109'
p473
sS'disable_flushing'
p474
S'true'
p475
ssaa(lp476
S'micro'
p477
a(dp478
S'build'
p479
(dp480
S'core'
p481
S'arduino'
p482
sS'f_cpu'
p483
S'16000000L'
p484
sS'vid'
p485
S'0x2341'
p486
sS'pid'
p487
S'0x8037'
p488
sS'variant'
p489
S'micro'
p490
sS'mcu'
p491
S'atmega32u4'
p492
ssS'bootloader'
p493
(dp494
S'extended_fuses'
p495
S'0xcb'
p496
sS'high_fuses'
p497
S'0xd8'
p498
sS'low_fuses'
p499
S'0xff'
p500
sS'lock_bits'
p501
S'0x2F'
p502
sS'file'
p503
S'Caterina-Micro.hex'
p504
sS'path'
p505
S'caterina'
p506
sS'unlock_bits'
p507
S'0x3F'
p508
ssS'name'
p509
S'Arduino Micro'
p510
sS'upload'
p511
(dp512
S'speed'
p513
S'57600'
p514
sS'maximum_size'
p515
S'28672'
p516
sS'protocol'
p517
S'avr109'
p518
sS'disable_flushing'
p519
S'true'
p520
ssaa(lp521
S'mini328'
p522
a(dp523
S'build'
p524
(dp525
S'core'
p526
S'arduino'
p527
sS'mcu'
p528
S'atmega328p'
p529
sS'f_cpu'
p530
S'16000000L'
p531
sS'variant'
p532
S'eightanaloginputs'
p533
ssS'bootloader'
p534
(dp535
S'extended_fuses'
p536
S'0x05'
p537
sS'high_fuses'
p538
S'0xd8'
p539
sS'low_fuses'
p540
S'0xff'
p541
sS'lock_bits'
p542
S'0x0F'
p543
sS'file'
p544
S'optiboot_atmega328-Mini.hex'
p545
sS'path'
p546
S'optiboot'
p547
sS'unlock_bits'
p548
S'0x3F'
p549
ssS'name'
p550
S'Arduino Mini w/ ATmega328'
p551
sS'upload'
p552
(dp553
S'speed'
p554
S'115200'
p555
sS'maximum_size'
p556
S'28672'
p557
sS'protocol'
p558
S'arduino'
p559
ssaa(lp560
S'mini'
p561
a(dp562
S'build'
p563
(dp564
S'core'
p565
S'arduino'
p566
sS'mcu'
p567
S'atmega168'
p568
sS'f_cpu'
p569
S'16000000L'
p570
sS'variant'
p571
S'eightanaloginputs'
p572
ssS'bootloader'
p573
(dp574
S'extended_fuses'
p575
S'0x00'
p576
sS'high_fuses'
p577
S'0xdd'
p578
sS'low_fuses'
p579
S'0xff'
p580
sS'lock_bits'
p581
S'0x0F'
p582
sS'file'
p583
S'ATmegaBOOT_168_ng.hex'
p584
sS'path'
p585
S'atmega'
p586
sS'unlock_bits'
p587
S'0x3F'
p588
ssS'name'
p589
S'Arduino Mini w/ ATmega168'
p590
sS'upload'
p591
(dp592
S'speed'
p593
S'19200'
p594
sS'maximum_size'
p595
S'14336'
p596
sS'protocol'
p597
S'arduino'
p598
ssaa(lp599
S'ethernet'
p600
a(dp601
S'build'
p602
(dp603
S'f_cpu'
p604
S'16000000L'
p605
sS'mcu'
p606
S'atmega328p'
p607
sS'variant'
p608
S'standard'
p609
sS'core'
p610
S'arduino'
p611
ssS'bootloader'
p612
(dp613
S'extended_fuses'
p614
S'0x05'
p615
sS'high_fuses'
p616
S'0xde'
p617
sS'low_fuses'
p618
S'0xff'
p619
sS'lock_bits'
p620
S'0x0F'
p621
sS'file'
p622
S'optiboot_atmega328.hex'
p623
sS'path'
p624
S'optiboot'
p625
sS'unlock_bits'
p626
S'0x3F'
p627
ssS'name'
p628
S'Arduino Ethernet'
p629
sS'upload'
p630
(dp631
S'speed'
p632
S'115200'
p633
sS'maximum_size'
p634
S'32256'
p635
sS'protocol'
p636
S'arduino'
p637
ssaa(lp638
S'fio'
p639
a(dp640
S'build'
p641
(dp642
S'core'
p643
S'arduino'
p644
sS'mcu'
p645
S'atmega328p'
p646
sS'f_cpu'
p647
S'8000000L'
p648
sS'variant'
p649
S'eightanaloginputs'
p650
ssS'bootloader'
p651
(dp652
S'extended_fuses'
p653
S'0x05'
p654
sS'high_fuses'
p655
S'0xDA'
p656
sS'low_fuses'
p657
S'0xFF'
p658
sS'lock_bits'
p659
S'0x0F'
p660
sS'file'
p661
S'ATmegaBOOT_168_atmega328_pro_8MHz.hex'
p662
sS'path'
p663
S'arduino:atmega'
p664
sS'unlock_bits'
p665
S'0x3F'
p666
ssS'name'
p667
S'Arduino Fio'
p668
sS'upload'
p669
(dp670
S'speed'
p671
S'57600'
p672
sS'maximum_size'
p673
S'30720'
p674
sS'protocol'
p675
S'arduino'
p676
ssaa(lp677
S'bt328'
p678
a(dp679
S'build'
p680
(dp681
S'core'
p682
S'arduino'
p683
sS'mcu'
p684
S'atmega328p'
p685
sS'f_cpu'
p686
S'16000000L'
p687
sS'variant'
p688
S'eightanaloginputs'
p689
ssS'bootloader'
p690
(dp691
S'extended_fuses'
p692
S'0x05'
p693
sS'high_fuses'
p694
S'0xd8'
p695
sS'low_fuses'
p696
S'0xff'
p697
sS'lock_bits'
p698
S'0x0F'
p699
sS'file'
p700
S'ATmegaBOOT_168_atmega328_bt.hex'
p701
sS'path'
p702
S'bt'
p703
sS'unlock_bits'
p704
S'0x3F'
p705
ssS'name'
p706
S'Arduino BT w/ ATmega328'
p707
sS'upload'
p708
(dp709
S'speed'
p710
S'19200'
p711
sS'maximum_size'
p712
S'28672'
p713
sS'protocol'
p714
S'arduino'
p715
sS'disable_flushing'
p716
S'true'
p717
ssaa(lp718
S'bt'
p719
a(dp720
S'build'
p721
(dp722
S'core'
p723
S'arduino'
p724
sS'mcu'
p725
S'atmega168'
p726
sS'f_cpu'
p727
S'16000000L'
p728
sS'variant'
p729
S'eightanaloginputs'
p730
ssS'bootloader'
p731
(dp732
S'extended_fuses'
p733
S'0x00'
p734
sS'high_fuses'
p735
S'0xdd'
p736
sS'low_fuses'
p737
S'0xff'
p738
sS'lock_bits'
p739
S'0x0F'
p740
sS'file'
p741
S'ATmegaBOOT_168.hex'
p742
sS'path'
p743
S'bt'
p744
sS'unlock_bits'
p745
S'0x3F'
p746
ssS'name'
p747
S'Arduino BT w/ ATmega168'
p748
sS'upload'
p749
(dp750
S'speed'
p751
S'19200'
p752
sS'maximum_size'
p753
S'14336'
p754
sS'protocol'
p755
S'arduino'
p756
sS'disable_flushing'
p757
S'true'
p758
ssaa(lp759
S'LilyPadUSB'
p760
a(dp761
S'build'
p762
(dp763
S'core'
p764
S'arduino'
p765
sS'f_cpu'
p766
S'8000000L'
p767
sS'vid'
p768
S'0x1B4F'
p769
sS'pid'
p770
S'0x9208'
p771
sS'variant'
p772
S'leonardo'
p773
sS'mcu'
p774
S'atmega32u4'
p775
ssS'bootloader'
p776
(dp777
S'extended_fuses'
p778
S'0xce'
p779
sS'high_fuses'
p780
S'0xd8'
p781
sS'low_fuses'
p782
S'0xff'
p783
sS'lock_bits'
p784
S'0x2F'
p785
sS'file'
p786
S'Caterina-LilyPadUSB.hex'
p787
sS'path'
p788
S'caterina-LilyPadUSB'
p789
sS'unlock_bits'
p790
S'0x3F'
p791
ssS'name'
p792
S'LilyPad Arduino USB'
p793
sS'upload'
p794
(dp795
S'speed'
p796
S'57600'
p797
sS'maximum_size'
p798
S'28672'
p799
sS'protocol'
p800
S'avr109'
p801
sS'disable_flushing'
p802
S'true'
p803
ssaa(lp804
S'lilypad328'
p805
a(dp806
S'build'
p807
(dp808
S'core'
p809
S'arduino'
p810
sS'mcu'
p811
S'atmega328p'
p812
sS'f_cpu'
p813
S'8000000L'
p814
sS'variant'
p815
S'standard'
p816
ssS'bootloader'
p817
(dp818
S'extended_fuses'
p819
S'0x05'
p820
sS'high_fuses'
p821
S'0xDA'
p822
sS'low_fuses'
p823
S'0xFF'
p824
sS'lock_bits'
p825
S'0x0F'
p826
sS'file'
p827
S'ATmegaBOOT_168_atmega328_pro_8MHz.hex'
p828
sS'path'
p829
S'atmega'
p830
sS'unlock_bits'
p831
S'0x3F'
p832
ssS'name'
p833
S'LilyPad Arduino w/ ATmega328'
p834
sS'upload'
p835
(dp836
S'speed'
p837
S'57600'
p838
sS'maximum_size'
p839
S'30720'
p840
sS'protocol'
p841
S'arduino'
p842
ssaa(lp843
S'lilypad'
p844
a(dp845
S'build'
p846
(dp847
S'core'
p848
S'arduino'
p849
sS'mcu'
p850
S'atmega168'
p851
sS'f_cpu'
p852
S'8000000L'
p853
sS'variant'
p854
S'standard'
p855
ssS'bootloader'
p856
(dp857
S'extended_fuses'
p858
S'0x00'
p859
sS'high_fuses'
p860
S'0xdd'
p861
sS'low_fuses'
p862
S'0xe2'
p863
sS'lock_bits'
p864
S'0x0F'
p865
sS'file'
p866
S'LilyPadBOOT_168.hex'
p867
sS'path'
p868
S'lilypad'
p869
sS'unlock_bits'
p870
S'0x3F'
p871
ssS'name'
p872
S'LilyPad Arduino w/ ATmega168'
p873
sS'upload'
p874
(dp875
S'speed'
p876
S'19200'
p877
sS'maximum_size'
p878
S'14336'
p879
sS'protocol'
p880
S'arduino'
p881
ssaa(lp882
S'pro5v328'
p883
a(dp884
S'build'
p885
(dp886
S'core'
p887
S'arduino'
p888
sS'mcu'
p889
S'atmega328p'
p890
sS'f_cpu'
p891
S'16000000L'
p892
sS'variant'
p893
S'standard'
p894
ssS'bootloader'
p895
(dp896
S'extended_fuses'
p897
S'0x05'
p898
sS'high_fuses'
p899
S'0xDA'
p900
sS'low_fuses'
p901
S'0xFF'
p902
sS'lock_bits'
p903
S'0x0F'
p904
sS'file'
p905
S'ATmegaBOOT_168_atmega328.hex'
p906
sS'path'
p907
S'atmega'
p908
sS'unlock_bits'
p909
S'0x3F'
p910
ssS'name'
p911
S'Arduino Pro or Pro Mini (5V, 16 MHz) w/ ATmega328'
p912
sS'upload'
p913
(dp914
S'speed'
p915
S'57600'
p916
sS'maximum_size'
p917
S'30720'
p918
sS'protocol'
p919
S'arduino'
p920
ssaa(lp921
S'pro5v'
p922
a(dp923
S'build'
p924
(dp925
S'core'
p926
S'arduino'
p927
sS'mcu'
p928
S'atmega168'
p929
sS'f_cpu'
p930
S'16000000L'
p931
sS'variant'
p932
S'standard'
p933
ssS'bootloader'
p934
(dp935
S'extended_fuses'
p936
S'0x00'
p937
sS'high_fuses'
p938
S'0xdd'
p939
sS'low_fuses'
p940
S'0xff'
p941
sS'lock_bits'
p942
S'0x0F'
p943
sS'file'
p944
S'ATmegaBOOT_168_diecimila.hex'
p945
sS'path'
p946
S'atmega'
p947
sS'unlock_bits'
p948
S'0x3F'
p949
ssS'name'
p950
S'Arduino Pro or Pro Mini (5V, 16 MHz) w/ ATmega168'
p951
sS'upload'
p952
(dp953
S'speed'
p954
S'19200'
p955
sS'maximum_size'
p956
S'14336'
p957
sS'protocol'
p958
S'arduino'
p959
ssaa(lp960
S'pro328'
p961
a(dp962
S'build'
p963
(dp964
S'core'
p965
S'arduino'
p966
sS'mcu'
p967
S'atmega328p'
p968
sS'f_cpu'
p969
S'8000000L'
p970
sS'variant'
p971
S'standard'
p972
ssS'bootloader'
p973
(dp974
S'extended_fuses'
p975
S'0x05'
p976
sS'high_fuses'
p977
S'0xDA'
p978
sS'low_fuses'
p979
S'0xFF'
p980
sS'lock_bits'
p981
S'0x0F'
p982
sS'file'
p983
S'ATmegaBOOT_168_atmega328_pro_8MHz.hex'
p984
sS'path'
p985
S'atmega'
p986
sS'unlock_bits'
p987
S'0x3F'
p988
ssS'name'
p989
S'Arduino Pro or Pro Mini (3.3V, 8 MHz) w/ ATmega328'
p990
sS'upload'
p991
(dp992
S'speed'
p993
S'57600'
p994
sS'maximum_size'
p995
S'30720'
p996
sS'protocol'
p997
S'arduino'
p998
ssaa(lp999
S'pro'
p1000
a(dp1001
S'build'
p1002
(dp1003
S'core'
p1004
S'arduino'
p1005
sS'mcu'
p1006
S'atmega168'
p1007
sS'f_cpu'
p1008
S'8000000L'
p1009
sS'variant'
p1010
S'standard'
p1011
ssS'bootloader'
p1012
(dp1013
S'extended_fuses'
p1014
S'0x00'
p1015
sS'high_fuses'
p1016
S'0xdd'
p1017
sS'low_fuses'
p1018
S'0xc6'
p1019
sS'lock_bits'
p1020
S'0x0F'
p1021
sS'file'
p1022
S'ATmegaBOOT_168_pro_8MHz.hex'
p1023
sS'path'
p1024
S'atmega'
p1025
sS'unlock_bits'
p1026
S'0x3F'
p1027
ssS'name'
p1028
S'Arduino Pro or Pro Mini (3.3V, 8 MHz) w/ ATmega168'
p1029
sS'upload'
p1030
(dp1031
S'speed'
p1032
S'19200'
p1033
sS'maximum_size'
p1034
S'14336'
p1035
sS'protocol'
p1036
S'arduino'
p1037
ssaa(lp1038
S'atmega168'
p1039
a(dp1040
S'build'
p1041
(dp1042
S'core'
p1043
S'arduino'
p1044
sS'mcu'
p1045
S'atmega168'
p1046
sS'f_cpu'
p1047
S'16000000L'
p1048
sS'variant'
p1049
S'standard'
p1050
ssS'bootloader'
p1051
(dp1052
S'extended_fuses'
p1053
S'0x00'
p1054
sS'high_fuses'
p1055
S'0xdd'
p1056
sS'low_fuses'
p1057
S'0xff'
p1058
sS'lock_bits'
p1059
S'0x0F'
p1060
sS'file'
p1061
S'ATmegaBOOT_168_ng.hex'
p1062
sS'path'
p1063
S'atmega'
p1064
sS'unlock_bits'
p1065
S'0x3F'
p1066
ssS'name'
p1067
S'Arduino NG or older w/ ATmega168'
p1068
sS'upload'
p1069
(dp1070
S'speed'
p1071
S'19200'
p1072
sS'maximum_size'
p1073
S'14336'
p1074
sS'protocol'
p1075
S'arduino'
p1076
ssaa(lp1077
S'atmega8'
p1078
a(dp1079
S'build'
p1080
(dp1081
S'core'
p1082
S'arduino'
p1083
sS'mcu'
p1084
S'atmega8'
p1085
sS'f_cpu'
p1086
S'16000000L'
p1087
sS'variant'
p1088
S'standard'
p1089
ssS'bootloader'
p1090
(dp1091
S'high_fuses'
p1092
S'0xca'
p1093
sS'low_fuses'
p1094
S'0xdf'
p1095
sS'lock_bits'
p1096
S'0x0F'
p1097
sS'file'
p1098
S'ATmegaBOOT-prod-firmware-2009-11-07.hex'
p1099
sS'path'
p1100
S'atmega8'
p1101
sS'unlock_bits'
p1102
S'0x3F'
p1103
ssS'name'
p1104
S'Arduino NG or older w/ ATmega8'
p1105
sS'upload'
p1106
(dp1107
S'speed'
p1108
S'19200'
p1109
sS'maximum_size'
p1110
S'7168'
p1111
sS'protocol'
p1112
S'arduino'
p1113
ssaa(lp1114
S'attiny45'
p1115
a(dp1116
S'build'
p1117
(dp1118
S'core'
p1119
S'arduino:arduino'
p1120
sS'mcu'
p1121
S'attiny45'
p1122
sS'f_cpu'
p1123
S'1000000L'
p1124
sS'variant'
p1125
S'tiny8'
p1126
ssS'bootloader'
p1127
(dp1128
S'low_fuses'
p1129
S'0x62'
p1130
sS'extended_fuses'
p1131
S'0xff'
p1132
sS'high_fuses'
p1133
S'0xdf'
p1134
ssS'name'
p1135
S'ATtiny45 (internal 1 MHz clock)'
p1136
sS'upload'
p1137
(dp1138
S'maximum_size'
p1139
S'4096'
p1140
sS'protocol'
p1141
S'arduino'
p1142
ssaa(lp1143
S'attiny45-8'
p1144
a(dp1145
S'build'
p1146
(dp1147
S'core'
p1148
S'arduino:arduino'
p1149
sS'mcu'
p1150
S'attiny45'
p1151
sS'f_cpu'
p1152
S'8000000L'
p1153
sS'variant'
p1154
S'tiny8'
p1155
ssS'bootloader'
p1156
(dp1157
S'low_fuses'
p1158
S'0xe2'
p1159
sS'extended_fuses'
p1160
S'0xff'
p1161
sS'high_fuses'
p1162
S'0xdf'
p1163
ssS'name'
p1164
S'ATtiny45 (internal 8 MHz clock)'
p1165
sS'upload'
p1166
(dp1167
S'maximum_size'
p1168
S'4096'
p1169
sS'protocol'
p1170
S'arduino'
p1171
ssaa(lp1172
S'attiny45-20'
p1173
a(dp1174
S'build'
p1175
(dp1176
S'core'
p1177
S'arduino:arduino'
p1178
sS'mcu'
p1179
S'attiny45'
p1180
sS'f_cpu'
p1181
S'20000000L'
p1182
sS'variant'
p1183
S'tiny8'
p1184
ssS'bootloader'
p1185
(dp1186
S'low_fuses'
p1187
S'0xfe'
p1188
sS'extended_fuses'
p1189
S'0xff'
p1190
sS'high_fuses'
p1191
S'0xdf'
p1192
ssS'name'
p1193
S'ATtiny45 (external 20 MHz clock)'
p1194
sS'upload'
p1195
(dp1196
S'maximum_size'
p1197
S'4096'
p1198
sS'protocol'
p1199
S'arduino'
p1200
ssaa(lp1201
S'attiny85'
p1202
a(dp1203
S'build'
p1204
(dp1205
S'core'
p1206
S'arduino:arduino'
p1207
sS'mcu'
p1208
S'attiny85'
p1209
sS'f_cpu'
p1210
S'1000000L'
p1211
sS'variant'
p1212
S'tiny8'
p1213
ssS'bootloader'
p1214
(dp1215
S'low_fuses'
p1216
S'0x62'
p1217
sS'extended_fuses'
p1218
S'0xff'
p1219
sS'high_fuses'
p1220
S'0xdf'
p1221
ssS'name'
p1222
S'ATtiny85 (internal 1 MHz clock)'
p1223
sS'upload'
p1224
(dp1225
S'maximum_size'
p1226
S'8192'
p1227
sS'protocol'
p1228
S'arduino'
p1229
ssaa(lp1230
S'attiny85-8'
p1231
a(dp1232
S'build'
p1233
(dp1234
S'core'
p1235
S'arduino:arduino'
p1236
sS'mcu'
p1237
S'attiny85'
p1238
sS'f_cpu'
p1239
S'8000000L'
p1240
sS'variant'
p1241
S'tiny8'
p1242
ssS'bootloader'
p1243
(dp1244
S'low_fuses'
p1245
S'0xe2'
p1246
sS'extended_fuses'
p1247
S'0xff'
p1248
sS'high_fuses'
p1249
S'0xdf'
p1250
ssS'name'
p1251
S'ATtiny85 (internal 8 MHz clock)'
p1252
sS'upload'
p1253
(dp1254
S'maximum_size'
p1255
S'8192'
p1256
sS'protocol'
p1257
S'arduino'
p1258
ssaa(lp1259
S'attiny85-20'
p1260
a(dp1261
S'build'
p1262
(dp1263
S'core'
p1264
S'arduino:arduino'
p1265
sS'mcu'
p1266
S'attiny85'
p1267
sS'f_cpu'
p1268
S'20000000L'
p1269
sS'variant'
p1270
S'tiny8'
p1271
ssS'bootloader'
p1272
(dp1273
S'low_fuses'
p1274
S'0xfe'
p1275
sS'extended_fuses'
p1276
S'0xff'
p1277
sS'high_fuses'
p1278
S'0xdf'
p1279
ssS'name'
p1280
S'ATtiny85 (external 20 MHz clock)'
p1281
sS'upload'
p1282
(dp1283
S'maximum_size'
p1284
S'8192'
p1285
sS'protocol'
p1286
S'arduino'
p1287
ssaa(lp1288
S'attiny44'
p1289
a(dp1290
S'build'
p1291
(dp1292
S'core'
p1293
S'arduino:arduino'
p1294
sS'mcu'
p1295
S'attiny44'
p1296
sS'f_cpu'
p1297
S'1000000L'
p1298
sS'variant'
p1299
S'tiny14'
p1300
ssS'bootloader'
p1301
(dp1302
S'low_fuses'
p1303
S'0x62'
p1304
sS'extended_fuses'
p1305
S'0xff'
p1306
sS'high_fuses'
p1307
S'0xdf'
p1308
ssS'name'
p1309
S'ATtiny44 (internal 1 MHz clock)'
p1310
sS'upload'
p1311
(dp1312
S'maximum_size'
p1313
S'4096'
p1314
sS'protocol'
p1315
S'arduino'
p1316
ssaa(lp1317
S'attiny44-8'
p1318
a(dp1319
S'build'
p1320
(dp1321
S'core'
p1322
S'arduino:arduino'
p1323
sS'mcu'
p1324
S'attiny44'
p1325
sS'f_cpu'
p1326
S'8000000L'
p1327
sS'variant'
p1328
S'tiny14'
p1329
ssS'bootloader'
p1330
(dp1331
S'low_fuses'
p1332
S'0xe2'
p1333
sS'extended_fuses'
p1334
S'0xff'
p1335
sS'high_fuses'
p1336
S'0xdf'
p1337
ssS'name'
p1338
S'ATtiny44 (internal 8 MHz clock)'
p1339
sS'upload'
p1340
(dp1341
S'maximum_size'
p1342
S'4096'
p1343
sS'protocol'
p1344
S'arduino'
p1345
ssaa(lp1346
S'attiny44-20'
p1347
a(dp1348
S'build'
p1349
(dp1350
S'core'
p1351
S'arduino:arduino'
p1352
sS'mcu'
p1353
S'attiny44'
p1354
sS'f_cpu'
p1355
S'20000000L'
p1356
sS'variant'
p1357
S'tiny14'
p1358
ssS'bootloader'
p1359
(dp1360
S'low_fuses'
p1361
S'0xfe'
p1362
sS'extended_fuses'
p1363
S'0xff'
p1364
sS'high_fuses'
p1365
S'0xdf'
p1366
ssS'name'
p1367
S'ATtiny44 (external 20 MHz clock)'
p1368
sS'upload'
p1369
(dp1370
S'maximum_size'
p1371
S'4096'
p1372
sS'protocol'
p1373
S'arduino'
p1374
ssaa(lp1375
S'attiny84'
p1376
a(dp1377
S'build'
p1378
(dp1379
S'core'
p1380
S'arduino:arduino'
p1381
sS'mcu'
p1382
S'attiny84'
p1383
sS'f_cpu'
p1384
S'1000000L'
p1385
sS'variant'
p1386
S'tiny14'
p1387
ssS'bootloader'
p1388
(dp1389
S'low_fuses'
p1390
S'0x62'
p1391
sS'extended_fuses'
p1392
S'0xff'
p1393
sS'high_fuses'
p1394
S'0xdf'
p1395
ssS'name'
p1396
S'ATtiny84 (internal 1 MHz clock)'
p1397
sS'upload'
p1398
(dp1399
S'maximum_size'
p1400
S'8192'
p1401
sS'protocol'
p1402
S'arduino'
p1403
ssaa(lp1404
S'attiny84-8'
p1405
a(dp1406
S'build'
p1407
(dp1408
S'core'
p1409
S'arduino:arduino'
p1410
sS'mcu'
p1411
S'attiny84'
p1412
sS'f_cpu'
p1413
S'8000000L'
p1414
sS'variant'
p1415
S'tiny14'
p1416
ssS'bootloader'
p1417
(dp1418
S'low_fuses'
p1419
S'0xe2'
p1420
sS'extended_fuses'
p1421
S'0xff'
p1422
sS'high_fuses'
p1423
S'0xdf'
p1424
ssS'name'
p1425
S'ATtiny84 (internal 8 MHz clock)'
p1426
sS'upload'
p1427
(dp1428
S'maximum_size'
p1429
S'8192'
p1430
sS'protocol'
p1431
S'arduino'
p1432
ssaa(lp1433
S'attiny84-20'
p1434
a(dp1435
S'build'
p1436
(dp1437
S'core'
p1438
S'arduino:arduino'
p1439
sS'mcu'
p1440
S'attiny84'
p1441
sS'f_cpu'
p1442
S'20000000L'
p1443
sS'variant'
p1444
S'tiny14'
p1445
ssS'bootloader'
p1446
(dp1447
S'low_fuses'
p1448
S'0xfe'
p1449
sS'extended_fuses'
p1450
S'0xff'
p1451
sS'high_fuses'
p1452
S'0xdf'
p1453
ssS'name'
p1454
S'ATtiny84 (external 20 MHz clock)'
p1455
sS'upload'
p1456
(dp1457
S'maximum_size'
p1458
S'8192'
p1459
sS'protocol'
p1460
S'arduino'
p1461
ssaatp1462
Rp1463
(dp1464
S'default'
p1465
S'uno'
p1466
sbtp1467
a(S'cxx'
p1468
S'/usr/bin/avr-g++'
p1469
tp1470
a.