(lp0
(S'cppflags'
p1
ccopy_reg
_reconstructor
p2
(cino.utils
SpaceList
p3
c__builtin__
list
p4
(lp5
S'-mmcu=atmega32u4'
p6
aS'-DF_CPU=16000000L'
p7
aS'-DARDUINO=103'
p8
aS'-I/usr/share/arduino/hardware/arduino/cores/arduino'
p9
aS'-ffunction-sections'
p10
aS'-fdata-sections'
p11
aS'-g'
p12
aS'-Os'
p13
aS'-w'
p14
aS'-DUSB_VID=0x2341'
p15
aS'-DUSB_PID=0x8036'
p16
aS'-I/usr/share/arduino/hardware/arduino/variants/leonardo'
p17
aS'-I/usr/share/arduino/libraries/ZumoMotors'
p18
aS'-I/usr/share/arduino/libraries/QTRSensors'
p19
aS'-I/usr/share/arduino/libraries/LSM303'
p20
aS'-I/usr/share/arduino/libraries/Pushbutton'
p21
aS'-I/usr/share/arduino/libraries/ZumoReflectanceSensorArray'
p22
aS'-I/usr/share/arduino/libraries/ZumoBuzzer'
p23
aS'-I/usr/share/arduino/libraries/Wire'
p24
aS'-I/usr/share/arduino/libraries/Wire/utility'
p25
aS'-I/usr/share/arduino/hardware/arduino/cores/arduino'
p26
atp27
Rp28
tp29
a(S'cxx'
p30
S'/usr/bin/avr-g++'
p31
tp32
a(S'build_dir'
p33
S'.build/uno'
p34
tp35
a(S'avrdude'
p36
S'/usr/share/arduino/hardware/tools/avrdude'
p37
tp38
a(S'ar'
p39
S'/usr/bin/avr-ar'
p40
tp41
a(S'names'
p42
(dp43
S'cpp'
p44
S'%s.cpp'
p45
sS'obj'
p46
S'%s.o'
p47
sS'deps'
p48
S'%s.d'
p49
sS'lib'
p50
S'lib%s.a'
p51
stp52
a(S'ldflags'
p53
g2
(g3
g4
(lp54
g6
aS'-Wl,-Os'
p55
aS'-Wl,--gc-sections'
p56
atp57
Rp58
tp59
a(S'arduino_lib_version'
p60
g2
(cino.environment
Version
p61
c__builtin__
tuple
p62
(I1
I0
I3
tp63
tp64
Rp65
tp66
a(S'objcopy'
p67
S'/usr/bin/avr-objcopy'
p68
tp69
a(S'board_models'
p70
cino.environment
BoardModels
p71
((lp72
(lp73
S'uno'
p74
a(dp75
S'bootloader'
p76
(dp77
S'extended_fuses'
p78
S'0x05'
p79
sS'high_fuses'
p80
S'0xde'
p81
sS'low_fuses'
p82
S'0xff'
p83
sS'lock_bits'
p84
S'0x0F'
p85
sS'file'
p86
S'optiboot_atmega328.hex'
p87
sS'path'
p88
S'optiboot'
p89
sS'unlock_bits'
p90
S'0x3F'
p91
ssS'upload'
p92
(dp93
S'speed'
p94
S'115200'
p95
sS'maximum_size'
p96
S'32256'
p97
sS'protocol'
p98
S'arduino'
p99
ssS'name'
p100
S'Arduino Uno'
p101
sS'build'
p102
(dp103
S'core'
p104
S'arduino'
p105
sS'mcu'
p106
S'atmega328p'
p107
sS'f_cpu'
p108
S'16000000L'
p109
sS'variant'
p110
S'standard'
p111
ssaa(lp112
S'atmega328'
p113
a(dp114
S'bootloader'
p115
(dp116
S'extended_fuses'
p117
S'0x05'
p118
sS'high_fuses'
p119
S'0xDA'
p120
sS'low_fuses'
p121
S'0xFF'
p122
sS'lock_bits'
p123
S'0x0F'
p124
sS'file'
p125
S'ATmegaBOOT_168_atmega328.hex'
p126
sS'path'
p127
S'atmega'
p128
sS'unlock_bits'
p129
S'0x3F'
p130
ssS'upload'
p131
(dp132
S'speed'
p133
S'57600'
p134
sS'maximum_size'
p135
S'30720'
p136
sS'protocol'
p137
S'arduino'
p138
ssS'name'
p139
S'Arduino Duemilanove w/ ATmega328'
p140
sS'build'
p141
(dp142
S'core'
p143
S'arduino'
p144
sS'mcu'
p145
S'atmega328p'
p146
sS'f_cpu'
p147
S'16000000L'
p148
sS'variant'
p149
S'standard'
p150
ssaa(lp151
S'diecimila'
p152
a(dp153
S'bootloader'
p154
(dp155
S'extended_fuses'
p156
S'0x00'
p157
sS'high_fuses'
p158
S'0xdd'
p159
sS'low_fuses'
p160
S'0xff'
p161
sS'lock_bits'
p162
S'0x0F'
p163
sS'file'
p164
S'ATmegaBOOT_168_diecimila.hex'
p165
sS'path'
p166
S'atmega'
p167
sS'unlock_bits'
p168
S'0x3F'
p169
ssS'upload'
p170
(dp171
S'speed'
p172
S'19200'
p173
sS'maximum_size'
p174
S'14336'
p175
sS'protocol'
p176
S'arduino'
p177
ssS'name'
p178
S'Arduino Diecimila or Duemilanove w/ ATmega168'
p179
sS'build'
p180
(dp181
S'core'
p182
S'arduino'
p183
sS'mcu'
p184
S'atmega168'
p185
sS'f_cpu'
p186
S'16000000L'
p187
sS'variant'
p188
S'standard'
p189
ssaa(lp190
S'nano328'
p191
a(dp192
S'bootloader'
p193
(dp194
S'extended_fuses'
p195
S'0x05'
p196
sS'high_fuses'
p197
S'0xDA'
p198
sS'low_fuses'
p199
S'0xFF'
p200
sS'lock_bits'
p201
S'0x0F'
p202
sS'file'
p203
S'ATmegaBOOT_168_atmega328.hex'
p204
sS'path'
p205
S'atmega'
p206
sS'unlock_bits'
p207
S'0x3F'
p208
ssS'upload'
p209
(dp210
S'speed'
p211
S'57600'
p212
sS'maximum_size'
p213
S'30720'
p214
sS'protocol'
p215
S'arduino'
p216
ssS'name'
p217
S'Arduino Nano w/ ATmega328'
p218
sS'build'
p219
(dp220
S'core'
p221
S'arduino'
p222
sS'mcu'
p223
S'atmega328p'
p224
sS'f_cpu'
p225
S'16000000L'
p226
sS'variant'
p227
S'eightanaloginputs'
p228
ssaa(lp229
S'nano'
p230
a(dp231
S'bootloader'
p232
(dp233
S'extended_fuses'
p234
S'0x00'
p235
sS'high_fuses'
p236
S'0xdd'
p237
sS'low_fuses'
p238
S'0xff'
p239
sS'lock_bits'
p240
S'0x0F'
p241
sS'file'
p242
S'ATmegaBOOT_168_diecimila.hex'
p243
sS'path'
p244
S'atmega'
p245
sS'unlock_bits'
p246
S'0x3F'
p247
ssS'upload'
p248
(dp249
S'speed'
p250
S'19200'
p251
sS'maximum_size'
p252
S'14336'
p253
sS'protocol'
p254
S'arduino'
p255
ssS'name'
p256
S'Arduino Nano w/ ATmega168'
p257
sS'build'
p258
(dp259
S'core'
p260
S'arduino'
p261
sS'mcu'
p262
S'atmega168'
p263
sS'f_cpu'
p264
S'16000000L'
p265
sS'variant'
p266
S'eightanaloginputs'
p267
ssaa(lp268
S'mega2560'
p269
a(dp270
S'bootloader'
p271
(dp272
S'extended_fuses'
p273
S'0xFD'
p274
sS'high_fuses'
p275
S'0xD8'
p276
sS'low_fuses'
p277
S'0xFF'
p278
sS'lock_bits'
p279
S'0x0F'
p280
sS'file'
p281
S'stk500boot_v2_mega2560.hex'
p282
sS'path'
p283
S'stk500v2'
p284
sS'unlock_bits'
p285
S'0x3F'
p286
ssS'upload'
p287
(dp288
S'speed'
p289
S'115200'
p290
sS'maximum_size'
p291
S'258048'
p292
sS'protocol'
p293
S'wiring'
p294
ssS'name'
p295
S'Arduino Mega 2560 or Mega ADK'
p296
sS'build'
p297
(dp298
S'core'
p299
S'arduino'
p300
sS'mcu'
p301
S'atmega2560'
p302
sS'f_cpu'
p303
S'16000000L'
p304
sS'variant'
p305
S'mega'
p306
ssaa(lp307
S'mega'
p308
a(dp309
S'bootloader'
p310
(dp311
S'extended_fuses'
p312
S'0xF5'
p313
sS'high_fuses'
p314
S'0xDA'
p315
sS'low_fuses'
p316
S'0xFF'
p317
sS'lock_bits'
p318
S'0x0F'
p319
sS'file'
p320
S'ATmegaBOOT_168_atmega1280.hex'
p321
sS'path'
p322
S'atmega'
p323
sS'unlock_bits'
p324
S'0x3F'
p325
ssS'upload'
p326
(dp327
S'speed'
p328
S'57600'
p329
sS'maximum_size'
p330
S'126976'
p331
sS'protocol'
p332
S'arduino'
p333
ssS'name'
p334
S'Arduino Mega (ATmega1280)'
p335
sS'build'
p336
(dp337
S'core'
p338
S'arduino'
p339
sS'mcu'
p340
S'atmega1280'
p341
sS'f_cpu'
p342
S'16000000L'
p343
sS'variant'
p344
S'mega'
p345
ssaa(lp346
S'leonardo'
p347
a(dp348
S'bootloader'
p349
(dp350
S'extended_fuses'
p351
S'0xcb'
p352
sS'high_fuses'
p353
S'0xd8'
p354
sS'low_fuses'
p355
S'0xff'
p356
sS'lock_bits'
p357
S'0x2F'
p358
sS'file'
p359
S'Caterina-Leonardo.hex'
p360
sS'path'
p361
S'caterina'
p362
sS'unlock_bits'
p363
S'0x3F'
p364
ssS'upload'
p365
(dp366
S'speed'
p367
S'57600'
p368
sS'maximum_size'
p369
S'28672'
p370
sS'protocol'
p371
S'avr109'
p372
sS'disable_flushing'
p373
S'true'
p374
ssS'name'
p375
S'Arduino Leonardo'
p376
sS'build'
p377
(dp378
S'core'
p379
S'arduino'
p380
sS'f_cpu'
p381
S'16000000L'
p382
sS'vid'
p383
S'0x2341'
p384
sS'pid'
p385
S'0x8036'
p386
sS'variant'
p387
S'leonardo'
p388
sS'mcu'
p389
S'atmega32u4'
p390
ssaa(lp391
S'esplora'
p392
a(dp393
S'bootloader'
p394
(dp395
S'extended_fuses'
p396
S'0xcb'
p397
sS'high_fuses'
p398
S'0xd8'
p399
sS'low_fuses'
p400
S'0xff'
p401
sS'lock_bits'
p402
S'0x2F'
p403
sS'file'
p404
S'Caterina-Esplora.hex'
p405
sS'path'
p406
S'caterina'
p407
sS'unlock_bits'
p408
S'0x3F'
p409
ssS'upload'
p410
(dp411
S'speed'
p412
S'57600'
p413
sS'maximum_size'
p414
S'28672'
p415
sS'protocol'
p416
S'avr109'
p417
sS'disable_flushing'
p418
S'true'
p419
ssS'name'
p420
S'Arduino Esplora'
p421
sS'build'
p422
(dp423
S'core'
p424
S'arduino'
p425
sS'f_cpu'
p426
S'16000000L'
p427
sS'vid'
p428
S'0x2341'
p429
sS'pid'
p430
S'0x803C'
p431
sS'variant'
p432
S'leonardo'
p433
sS'mcu'
p434
S'atmega32u4'
p435
ssaa(lp436
S'micro'
p437
a(dp438
S'bootloader'
p439
(dp440
S'extended_fuses'
p441
S'0xcb'
p442
sS'high_fuses'
p443
S'0xd8'
p444
sS'low_fuses'
p445
S'0xff'
p446
sS'lock_bits'
p447
S'0x2F'
p448
sS'file'
p449
S'Caterina-Micro.hex'
p450
sS'path'
p451
S'caterina'
p452
sS'unlock_bits'
p453
S'0x3F'
p454
ssS'upload'
p455
(dp456
S'speed'
p457
S'57600'
p458
sS'maximum_size'
p459
S'28672'
p460
sS'protocol'
p461
S'avr109'
p462
sS'disable_flushing'
p463
S'true'
p464
ssS'name'
p465
S'Arduino Micro'
p466
sS'build'
p467
(dp468
S'core'
p469
S'arduino'
p470
sS'f_cpu'
p471
S'16000000L'
p472
sS'vid'
p473
S'0x2341'
p474
sS'pid'
p475
S'0x8037'
p476
sS'variant'
p477
S'micro'
p478
sS'mcu'
p479
S'atmega32u4'
p480
ssaa(lp481
S'mini328'
p482
a(dp483
S'bootloader'
p484
(dp485
S'extended_fuses'
p486
S'0x05'
p487
sS'high_fuses'
p488
S'0xd8'
p489
sS'low_fuses'
p490
S'0xff'
p491
sS'lock_bits'
p492
S'0x0F'
p493
sS'file'
p494
S'optiboot_atmega328-Mini.hex'
p495
sS'path'
p496
S'optiboot'
p497
sS'unlock_bits'
p498
S'0x3F'
p499
ssS'upload'
p500
(dp501
S'speed'
p502
S'115200'
p503
sS'maximum_size'
p504
S'28672'
p505
sS'protocol'
p506
S'arduino'
p507
ssS'name'
p508
S'Arduino Mini w/ ATmega328'
p509
sS'build'
p510
(dp511
S'core'
p512
S'arduino'
p513
sS'mcu'
p514
S'atmega328p'
p515
sS'f_cpu'
p516
S'16000000L'
p517
sS'variant'
p518
S'eightanaloginputs'
p519
ssaa(lp520
S'mini'
p521
a(dp522
S'bootloader'
p523
(dp524
S'extended_fuses'
p525
S'0x00'
p526
sS'high_fuses'
p527
S'0xdd'
p528
sS'low_fuses'
p529
S'0xff'
p530
sS'lock_bits'
p531
S'0x0F'
p532
sS'file'
p533
S'ATmegaBOOT_168_ng.hex'
p534
sS'path'
p535
S'atmega'
p536
sS'unlock_bits'
p537
S'0x3F'
p538
ssS'upload'
p539
(dp540
S'speed'
p541
S'19200'
p542
sS'maximum_size'
p543
S'14336'
p544
sS'protocol'
p545
S'arduino'
p546
ssS'name'
p547
S'Arduino Mini w/ ATmega168'
p548
sS'build'
p549
(dp550
S'core'
p551
S'arduino'
p552
sS'mcu'
p553
S'atmega168'
p554
sS'f_cpu'
p555
S'16000000L'
p556
sS'variant'
p557
S'eightanaloginputs'
p558
ssaa(lp559
S'ethernet'
p560
a(dp561
S'bootloader'
p562
(dp563
S'extended_fuses'
p564
S'0x05'
p565
sS'high_fuses'
p566
S'0xde'
p567
sS'low_fuses'
p568
S'0xff'
p569
sS'lock_bits'
p570
S'0x0F'
p571
sS'file'
p572
S'optiboot_atmega328.hex'
p573
sS'path'
p574
S'optiboot'
p575
sS'unlock_bits'
p576
S'0x3F'
p577
ssS'upload'
p578
(dp579
S'speed'
p580
S'115200'
p581
sS'maximum_size'
p582
S'32256'
p583
sS'protocol'
p584
S'arduino'
p585
ssS'name'
p586
S'Arduino Ethernet'
p587
sS'build'
p588
(dp589
S'f_cpu'
p590
S'16000000L'
p591
sS'mcu'
p592
S'atmega328p'
p593
sS'variant'
p594
S'standard'
p595
sS'core'
p596
S'arduino'
p597
ssaa(lp598
S'fio'
p599
a(dp600
S'bootloader'
p601
(dp602
S'extended_fuses'
p603
S'0x05'
p604
sS'high_fuses'
p605
S'0xDA'
p606
sS'low_fuses'
p607
S'0xFF'
p608
sS'lock_bits'
p609
S'0x0F'
p610
sS'file'
p611
S'ATmegaBOOT_168_atmega328_pro_8MHz.hex'
p612
sS'path'
p613
S'arduino:atmega'
p614
sS'unlock_bits'
p615
S'0x3F'
p616
ssS'upload'
p617
(dp618
S'speed'
p619
S'57600'
p620
sS'maximum_size'
p621
S'30720'
p622
sS'protocol'
p623
S'arduino'
p624
ssS'name'
p625
S'Arduino Fio'
p626
sS'build'
p627
(dp628
S'core'
p629
S'arduino'
p630
sS'mcu'
p631
S'atmega328p'
p632
sS'f_cpu'
p633
S'8000000L'
p634
sS'variant'
p635
S'eightanaloginputs'
p636
ssaa(lp637
S'bt328'
p638
a(dp639
S'bootloader'
p640
(dp641
S'extended_fuses'
p642
S'0x05'
p643
sS'high_fuses'
p644
S'0xd8'
p645
sS'low_fuses'
p646
S'0xff'
p647
sS'lock_bits'
p648
S'0x0F'
p649
sS'file'
p650
S'ATmegaBOOT_168_atmega328_bt.hex'
p651
sS'path'
p652
S'bt'
p653
sS'unlock_bits'
p654
S'0x3F'
p655
ssS'upload'
p656
(dp657
S'speed'
p658
S'19200'
p659
sS'maximum_size'
p660
S'28672'
p661
sS'protocol'
p662
S'arduino'
p663
sS'disable_flushing'
p664
S'true'
p665
ssS'name'
p666
S'Arduino BT w/ ATmega328'
p667
sS'build'
p668
(dp669
S'core'
p670
S'arduino'
p671
sS'mcu'
p672
S'atmega328p'
p673
sS'f_cpu'
p674
S'16000000L'
p675
sS'variant'
p676
S'eightanaloginputs'
p677
ssaa(lp678
S'bt'
p679
a(dp680
S'bootloader'
p681
(dp682
S'extended_fuses'
p683
S'0x00'
p684
sS'high_fuses'
p685
S'0xdd'
p686
sS'low_fuses'
p687
S'0xff'
p688
sS'lock_bits'
p689
S'0x0F'
p690
sS'file'
p691
S'ATmegaBOOT_168.hex'
p692
sS'path'
p693
S'bt'
p694
sS'unlock_bits'
p695
S'0x3F'
p696
ssS'upload'
p697
(dp698
S'speed'
p699
S'19200'
p700
sS'maximum_size'
p701
S'14336'
p702
sS'protocol'
p703
S'arduino'
p704
sS'disable_flushing'
p705
S'true'
p706
ssS'name'
p707
S'Arduino BT w/ ATmega168'
p708
sS'build'
p709
(dp710
S'core'
p711
S'arduino'
p712
sS'mcu'
p713
S'atmega168'
p714
sS'f_cpu'
p715
S'16000000L'
p716
sS'variant'
p717
S'eightanaloginputs'
p718
ssaa(lp719
S'LilyPadUSB'
p720
a(dp721
S'bootloader'
p722
(dp723
S'extended_fuses'
p724
S'0xce'
p725
sS'high_fuses'
p726
S'0xd8'
p727
sS'low_fuses'
p728
S'0xff'
p729
sS'lock_bits'
p730
S'0x2F'
p731
sS'file'
p732
S'Caterina-LilyPadUSB.hex'
p733
sS'path'
p734
S'caterina-LilyPadUSB'
p735
sS'unlock_bits'
p736
S'0x3F'
p737
ssS'upload'
p738
(dp739
S'speed'
p740
S'57600'
p741
sS'maximum_size'
p742
S'28672'
p743
sS'protocol'
p744
S'avr109'
p745
sS'disable_flushing'
p746
S'true'
p747
ssS'name'
p748
S'LilyPad Arduino USB'
p749
sS'build'
p750
(dp751
S'core'
p752
S'arduino'
p753
sS'f_cpu'
p754
S'8000000L'
p755
sS'vid'
p756
S'0x1B4F'
p757
sS'pid'
p758
S'0x9208'
p759
sS'variant'
p760
S'leonardo'
p761
sS'mcu'
p762
S'atmega32u4'
p763
ssaa(lp764
S'lilypad328'
p765
a(dp766
S'bootloader'
p767
(dp768
S'extended_fuses'
p769
S'0x05'
p770
sS'high_fuses'
p771
S'0xDA'
p772
sS'low_fuses'
p773
S'0xFF'
p774
sS'lock_bits'
p775
S'0x0F'
p776
sS'file'
p777
S'ATmegaBOOT_168_atmega328_pro_8MHz.hex'
p778
sS'path'
p779
S'atmega'
p780
sS'unlock_bits'
p781
S'0x3F'
p782
ssS'upload'
p783
(dp784
S'speed'
p785
S'57600'
p786
sS'maximum_size'
p787
S'30720'
p788
sS'protocol'
p789
S'arduino'
p790
ssS'name'
p791
S'LilyPad Arduino w/ ATmega328'
p792
sS'build'
p793
(dp794
S'core'
p795
S'arduino'
p796
sS'mcu'
p797
S'atmega328p'
p798
sS'f_cpu'
p799
S'8000000L'
p800
sS'variant'
p801
S'standard'
p802
ssaa(lp803
S'lilypad'
p804
a(dp805
S'bootloader'
p806
(dp807
S'extended_fuses'
p808
S'0x00'
p809
sS'high_fuses'
p810
S'0xdd'
p811
sS'low_fuses'
p812
S'0xe2'
p813
sS'lock_bits'
p814
S'0x0F'
p815
sS'file'
p816
S'LilyPadBOOT_168.hex'
p817
sS'path'
p818
S'lilypad'
p819
sS'unlock_bits'
p820
S'0x3F'
p821
ssS'upload'
p822
(dp823
S'speed'
p824
S'19200'
p825
sS'maximum_size'
p826
S'14336'
p827
sS'protocol'
p828
S'arduino'
p829
ssS'name'
p830
S'LilyPad Arduino w/ ATmega168'
p831
sS'build'
p832
(dp833
S'core'
p834
S'arduino'
p835
sS'mcu'
p836
S'atmega168'
p837
sS'f_cpu'
p838
S'8000000L'
p839
sS'variant'
p840
S'standard'
p841
ssaa(lp842
S'pro5v328'
p843
a(dp844
S'bootloader'
p845
(dp846
S'extended_fuses'
p847
S'0x05'
p848
sS'high_fuses'
p849
S'0xDA'
p850
sS'low_fuses'
p851
S'0xFF'
p852
sS'lock_bits'
p853
S'0x0F'
p854
sS'file'
p855
S'ATmegaBOOT_168_atmega328.hex'
p856
sS'path'
p857
S'atmega'
p858
sS'unlock_bits'
p859
S'0x3F'
p860
ssS'upload'
p861
(dp862
S'speed'
p863
S'57600'
p864
sS'maximum_size'
p865
S'30720'
p866
sS'protocol'
p867
S'arduino'
p868
ssS'name'
p869
S'Arduino Pro or Pro Mini (5V, 16 MHz) w/ ATmega328'
p870
sS'build'
p871
(dp872
S'core'
p873
S'arduino'
p874
sS'mcu'
p875
S'atmega328p'
p876
sS'f_cpu'
p877
S'16000000L'
p878
sS'variant'
p879
S'standard'
p880
ssaa(lp881
S'pro5v'
p882
a(dp883
S'bootloader'
p884
(dp885
S'extended_fuses'
p886
S'0x00'
p887
sS'high_fuses'
p888
S'0xdd'
p889
sS'low_fuses'
p890
S'0xff'
p891
sS'lock_bits'
p892
S'0x0F'
p893
sS'file'
p894
S'ATmegaBOOT_168_diecimila.hex'
p895
sS'path'
p896
S'atmega'
p897
sS'unlock_bits'
p898
S'0x3F'
p899
ssS'upload'
p900
(dp901
S'speed'
p902
S'19200'
p903
sS'maximum_size'
p904
S'14336'
p905
sS'protocol'
p906
S'arduino'
p907
ssS'name'
p908
S'Arduino Pro or Pro Mini (5V, 16 MHz) w/ ATmega168'
p909
sS'build'
p910
(dp911
S'core'
p912
S'arduino'
p913
sS'mcu'
p914
S'atmega168'
p915
sS'f_cpu'
p916
S'16000000L'
p917
sS'variant'
p918
S'standard'
p919
ssaa(lp920
S'pro328'
p921
a(dp922
S'bootloader'
p923
(dp924
S'extended_fuses'
p925
S'0x05'
p926
sS'high_fuses'
p927
S'0xDA'
p928
sS'low_fuses'
p929
S'0xFF'
p930
sS'lock_bits'
p931
S'0x0F'
p932
sS'file'
p933
S'ATmegaBOOT_168_atmega328_pro_8MHz.hex'
p934
sS'path'
p935
S'atmega'
p936
sS'unlock_bits'
p937
S'0x3F'
p938
ssS'upload'
p939
(dp940
S'speed'
p941
S'57600'
p942
sS'maximum_size'
p943
S'30720'
p944
sS'protocol'
p945
S'arduino'
p946
ssS'name'
p947
S'Arduino Pro or Pro Mini (3.3V, 8 MHz) w/ ATmega328'
p948
sS'build'
p949
(dp950
S'core'
p951
S'arduino'
p952
sS'mcu'
p953
S'atmega328p'
p954
sS'f_cpu'
p955
S'8000000L'
p956
sS'variant'
p957
S'standard'
p958
ssaa(lp959
S'pro'
p960
a(dp961
S'bootloader'
p962
(dp963
S'extended_fuses'
p964
S'0x00'
p965
sS'high_fuses'
p966
S'0xdd'
p967
sS'low_fuses'
p968
S'0xc6'
p969
sS'lock_bits'
p970
S'0x0F'
p971
sS'file'
p972
S'ATmegaBOOT_168_pro_8MHz.hex'
p973
sS'path'
p974
S'atmega'
p975
sS'unlock_bits'
p976
S'0x3F'
p977
ssS'upload'
p978
(dp979
S'speed'
p980
S'19200'
p981
sS'maximum_size'
p982
S'14336'
p983
sS'protocol'
p984
S'arduino'
p985
ssS'name'
p986
S'Arduino Pro or Pro Mini (3.3V, 8 MHz) w/ ATmega168'
p987
sS'build'
p988
(dp989
S'core'
p990
S'arduino'
p991
sS'mcu'
p992
S'atmega168'
p993
sS'f_cpu'
p994
S'8000000L'
p995
sS'variant'
p996
S'standard'
p997
ssaa(lp998
S'atmega168'
p999
a(dp1000
S'bootloader'
p1001
(dp1002
S'extended_fuses'
p1003
S'0x00'
p1004
sS'high_fuses'
p1005
S'0xdd'
p1006
sS'low_fuses'
p1007
S'0xff'
p1008
sS'lock_bits'
p1009
S'0x0F'
p1010
sS'file'
p1011
S'ATmegaBOOT_168_ng.hex'
p1012
sS'path'
p1013
S'atmega'
p1014
sS'unlock_bits'
p1015
S'0x3F'
p1016
ssS'upload'
p1017
(dp1018
S'speed'
p1019
S'19200'
p1020
sS'maximum_size'
p1021
S'14336'
p1022
sS'protocol'
p1023
S'arduino'
p1024
ssS'name'
p1025
S'Arduino NG or older w/ ATmega168'
p1026
sS'build'
p1027
(dp1028
S'core'
p1029
S'arduino'
p1030
sS'mcu'
p1031
S'atmega168'
p1032
sS'f_cpu'
p1033
S'16000000L'
p1034
sS'variant'
p1035
S'standard'
p1036
ssaa(lp1037
S'atmega8'
p1038
a(dp1039
S'bootloader'
p1040
(dp1041
S'high_fuses'
p1042
S'0xca'
p1043
sS'low_fuses'
p1044
S'0xdf'
p1045
sS'lock_bits'
p1046
S'0x0F'
p1047
sS'file'
p1048
S'ATmegaBOOT-prod-firmware-2009-11-07.hex'
p1049
sS'path'
p1050
S'atmega8'
p1051
sS'unlock_bits'
p1052
S'0x3F'
p1053
ssS'upload'
p1054
(dp1055
S'speed'
p1056
S'19200'
p1057
sS'maximum_size'
p1058
S'7168'
p1059
sS'protocol'
p1060
S'arduino'
p1061
ssS'name'
p1062
S'Arduino NG or older w/ ATmega8'
p1063
sS'build'
p1064
(dp1065
S'core'
p1066
S'arduino'
p1067
sS'mcu'
p1068
S'atmega8'
p1069
sS'f_cpu'
p1070
S'16000000L'
p1071
sS'variant'
p1072
S'standard'
p1073
ssaa(lp1074
S'attiny45'
p1075
a(dp1076
S'bootloader'
p1077
(dp1078
S'low_fuses'
p1079
S'0x62'
p1080
sS'extended_fuses'
p1081
S'0xff'
p1082
sS'high_fuses'
p1083
S'0xdf'
p1084
ssS'upload'
p1085
(dp1086
S'maximum_size'
p1087
S'4096'
p1088
sS'protocol'
p1089
S'arduino'
p1090
ssS'name'
p1091
S'ATtiny45 (internal 1 MHz clock)'
p1092
sS'build'
p1093
(dp1094
S'core'
p1095
S'arduino:arduino'
p1096
sS'mcu'
p1097
S'attiny45'
p1098
sS'f_cpu'
p1099
S'1000000L'
p1100
sS'variant'
p1101
S'tiny8'
p1102
ssaa(lp1103
S'attiny45-8'
p1104
a(dp1105
S'bootloader'
p1106
(dp1107
S'low_fuses'
p1108
S'0xe2'
p1109
sS'extended_fuses'
p1110
S'0xff'
p1111
sS'high_fuses'
p1112
S'0xdf'
p1113
ssS'upload'
p1114
(dp1115
S'maximum_size'
p1116
S'4096'
p1117
sS'protocol'
p1118
S'arduino'
p1119
ssS'name'
p1120
S'ATtiny45 (internal 8 MHz clock)'
p1121
sS'build'
p1122
(dp1123
S'core'
p1124
S'arduino:arduino'
p1125
sS'mcu'
p1126
S'attiny45'
p1127
sS'f_cpu'
p1128
S'8000000L'
p1129
sS'variant'
p1130
S'tiny8'
p1131
ssaa(lp1132
S'attiny45-20'
p1133
a(dp1134
S'bootloader'
p1135
(dp1136
S'low_fuses'
p1137
S'0xfe'
p1138
sS'extended_fuses'
p1139
S'0xff'
p1140
sS'high_fuses'
p1141
S'0xdf'
p1142
ssS'upload'
p1143
(dp1144
S'maximum_size'
p1145
S'4096'
p1146
sS'protocol'
p1147
S'arduino'
p1148
ssS'name'
p1149
S'ATtiny45 (external 20 MHz clock)'
p1150
sS'build'
p1151
(dp1152
S'core'
p1153
S'arduino:arduino'
p1154
sS'mcu'
p1155
S'attiny45'
p1156
sS'f_cpu'
p1157
S'20000000L'
p1158
sS'variant'
p1159
S'tiny8'
p1160
ssaa(lp1161
S'attiny85'
p1162
a(dp1163
S'bootloader'
p1164
(dp1165
S'low_fuses'
p1166
S'0x62'
p1167
sS'extended_fuses'
p1168
S'0xff'
p1169
sS'high_fuses'
p1170
S'0xdf'
p1171
ssS'upload'
p1172
(dp1173
S'maximum_size'
p1174
S'8192'
p1175
sS'protocol'
p1176
S'arduino'
p1177
ssS'name'
p1178
S'ATtiny85 (internal 1 MHz clock)'
p1179
sS'build'
p1180
(dp1181
S'core'
p1182
S'arduino:arduino'
p1183
sS'mcu'
p1184
S'attiny85'
p1185
sS'f_cpu'
p1186
S'1000000L'
p1187
sS'variant'
p1188
S'tiny8'
p1189
ssaa(lp1190
S'attiny85-8'
p1191
a(dp1192
S'bootloader'
p1193
(dp1194
S'low_fuses'
p1195
S'0xe2'
p1196
sS'extended_fuses'
p1197
S'0xff'
p1198
sS'high_fuses'
p1199
S'0xdf'
p1200
ssS'upload'
p1201
(dp1202
S'maximum_size'
p1203
S'8192'
p1204
sS'protocol'
p1205
S'arduino'
p1206
ssS'name'
p1207
S'ATtiny85 (internal 8 MHz clock)'
p1208
sS'build'
p1209
(dp1210
S'core'
p1211
S'arduino:arduino'
p1212
sS'mcu'
p1213
S'attiny85'
p1214
sS'f_cpu'
p1215
S'8000000L'
p1216
sS'variant'
p1217
S'tiny8'
p1218
ssaa(lp1219
S'attiny85-20'
p1220
a(dp1221
S'bootloader'
p1222
(dp1223
S'low_fuses'
p1224
S'0xfe'
p1225
sS'extended_fuses'
p1226
S'0xff'
p1227
sS'high_fuses'
p1228
S'0xdf'
p1229
ssS'upload'
p1230
(dp1231
S'maximum_size'
p1232
S'8192'
p1233
sS'protocol'
p1234
S'arduino'
p1235
ssS'name'
p1236
S'ATtiny85 (external 20 MHz clock)'
p1237
sS'build'
p1238
(dp1239
S'core'
p1240
S'arduino:arduino'
p1241
sS'mcu'
p1242
S'attiny85'
p1243
sS'f_cpu'
p1244
S'20000000L'
p1245
sS'variant'
p1246
S'tiny8'
p1247
ssaa(lp1248
S'attiny44'
p1249
a(dp1250
S'bootloader'
p1251
(dp1252
S'low_fuses'
p1253
S'0x62'
p1254
sS'extended_fuses'
p1255
S'0xff'
p1256
sS'high_fuses'
p1257
S'0xdf'
p1258
ssS'upload'
p1259
(dp1260
S'maximum_size'
p1261
S'4096'
p1262
sS'protocol'
p1263
S'arduino'
p1264
ssS'name'
p1265
S'ATtiny44 (internal 1 MHz clock)'
p1266
sS'build'
p1267
(dp1268
S'core'
p1269
S'arduino:arduino'
p1270
sS'mcu'
p1271
S'attiny44'
p1272
sS'f_cpu'
p1273
S'1000000L'
p1274
sS'variant'
p1275
S'tiny14'
p1276
ssaa(lp1277
S'attiny44-8'
p1278
a(dp1279
S'bootloader'
p1280
(dp1281
S'low_fuses'
p1282
S'0xe2'
p1283
sS'extended_fuses'
p1284
S'0xff'
p1285
sS'high_fuses'
p1286
S'0xdf'
p1287
ssS'upload'
p1288
(dp1289
S'maximum_size'
p1290
S'4096'
p1291
sS'protocol'
p1292
S'arduino'
p1293
ssS'name'
p1294
S'ATtiny44 (internal 8 MHz clock)'
p1295
sS'build'
p1296
(dp1297
S'core'
p1298
S'arduino:arduino'
p1299
sS'mcu'
p1300
S'attiny44'
p1301
sS'f_cpu'
p1302
S'8000000L'
p1303
sS'variant'
p1304
S'tiny14'
p1305
ssaa(lp1306
S'attiny44-20'
p1307
a(dp1308
S'bootloader'
p1309
(dp1310
S'low_fuses'
p1311
S'0xfe'
p1312
sS'extended_fuses'
p1313
S'0xff'
p1314
sS'high_fuses'
p1315
S'0xdf'
p1316
ssS'upload'
p1317
(dp1318
S'maximum_size'
p1319
S'4096'
p1320
sS'protocol'
p1321
S'arduino'
p1322
ssS'name'
p1323
S'ATtiny44 (external 20 MHz clock)'
p1324
sS'build'
p1325
(dp1326
S'core'
p1327
S'arduino:arduino'
p1328
sS'mcu'
p1329
S'attiny44'
p1330
sS'f_cpu'
p1331
S'20000000L'
p1332
sS'variant'
p1333
S'tiny14'
p1334
ssaa(lp1335
S'attiny84'
p1336
a(dp1337
S'bootloader'
p1338
(dp1339
S'low_fuses'
p1340
S'0x62'
p1341
sS'extended_fuses'
p1342
S'0xff'
p1343
sS'high_fuses'
p1344
S'0xdf'
p1345
ssS'upload'
p1346
(dp1347
S'maximum_size'
p1348
S'8192'
p1349
sS'protocol'
p1350
S'arduino'
p1351
ssS'name'
p1352
S'ATtiny84 (internal 1 MHz clock)'
p1353
sS'build'
p1354
(dp1355
S'core'
p1356
S'arduino:arduino'
p1357
sS'mcu'
p1358
S'attiny84'
p1359
sS'f_cpu'
p1360
S'1000000L'
p1361
sS'variant'
p1362
S'tiny14'
p1363
ssaa(lp1364
S'attiny84-8'
p1365
a(dp1366
S'bootloader'
p1367
(dp1368
S'low_fuses'
p1369
S'0xe2'
p1370
sS'extended_fuses'
p1371
S'0xff'
p1372
sS'high_fuses'
p1373
S'0xdf'
p1374
ssS'upload'
p1375
(dp1376
S'maximum_size'
p1377
S'8192'
p1378
sS'protocol'
p1379
S'arduino'
p1380
ssS'name'
p1381
S'ATtiny84 (internal 8 MHz clock)'
p1382
sS'build'
p1383
(dp1384
S'core'
p1385
S'arduino:arduino'
p1386
sS'mcu'
p1387
S'attiny84'
p1388
sS'f_cpu'
p1389
S'8000000L'
p1390
sS'variant'
p1391
S'tiny14'
p1392
ssaa(lp1393
S'attiny84-20'
p1394
a(dp1395
S'bootloader'
p1396
(dp1397
S'low_fuses'
p1398
S'0xfe'
p1399
sS'extended_fuses'
p1400
S'0xff'
p1401
sS'high_fuses'
p1402
S'0xdf'
p1403
ssS'upload'
p1404
(dp1405
S'maximum_size'
p1406
S'8192'
p1407
sS'protocol'
p1408
S'arduino'
p1409
ssS'name'
p1410
S'ATtiny84 (external 20 MHz clock)'
p1411
sS'build'
p1412
(dp1413
S'core'
p1414
S'arduino:arduino'
p1415
sS'mcu'
p1416
S'attiny84'
p1417
sS'f_cpu'
p1418
S'20000000L'
p1419
sS'variant'
p1420
S'tiny14'
p1421
ssaatp1422
Rp1423
(dp1424
S'default'
p1425
S'uno'
p1426
sbtp1427
a(S'used_libs'
p1428
(lp1429
S'/usr/share/arduino/libraries/ZumoMotors'
p1430
aS'/usr/share/arduino/libraries/QTRSensors'
p1431
aS'/usr/share/arduino/libraries/LSM303'
p1432
aS'/usr/share/arduino/libraries/Pushbutton'
p1433
aS'/usr/share/arduino/libraries/ZumoReflectanceSensorArray'
p1434
aS'/usr/share/arduino/libraries/ZumoBuzzer'
p1435
aS'/usr/share/arduino/libraries/Wire'
p1436
aS'/usr/share/arduino/hardware/arduino/cores/arduino'
p1437
atp1438
a(S'make'
p1439
S'/usr/bin/make'
p1440
tp1441
a(S'arduino_libraries_dir'
p1442
S'/usr/share/arduino/libraries'
p1443
tp1444
a(S'cc'
p1445
S'/usr/bin/avr-gcc'
p1446
tp1447
a(S'cflags'
p1448
g2
(g3
g4
(lp1449
tp1450
Rp1451
tp1452
a(S'cxxflags'
p1453
g2
(g3
g4
(lp1454
S'-fno-exceptions'
p1455
atp1456
Rp1457
tp1458
a(S'arduino_variants_dir'
p1459
S'/usr/share/arduino/hardware/arduino/variants'
p1460
tp1461
a(S'serial'
p1462
S'/usr/bin/picocom'
p1463
tp1464
a(S'stty'
p1465
S'/bin/stty'
p1466
tp1467
a(S'version.txt'
p1468
S'/usr/share/arduino/lib/version.txt'
p1469
tp1470
a(S'arduino_core_dir'
p1471
g1437
tp1472
a(S'boards.txt'
p1473
S'/usr/share/arduino/hardware/arduino/boards.txt'
p1474
tp1475
a(S'avrdude.conf'
p1476
S'/usr/share/arduino/hardware/tools/avrdude.conf'
p1477
tp1478
a(g48
g2
(g3
g4
(lp1479
S'.build/leonardo/src/dependencies.d'
p1480
aS'.build/leonardo/arduino/dependencies.d'
p1481
aS'.build/leonardo/ZumoMotors/dependencies.d'
p1482
aS'.build/leonardo/QTRSensors/dependencies.d'
p1483
aS'.build/leonardo/LSM303/dependencies.d'
p1484
aS'.build/leonardo/Pushbutton/dependencies.d'
p1485
aS'.build/leonardo/Wire/dependencies.d'
p1486
aS'.build/leonardo/ZumoReflectanceSensorArray/dependencies.d'
p1487
aS'.build/leonardo/ZumoBuzzer/dependencies.d'
p1488
atp1489
Rp1490
tp1491
a.